ARM GAS  C:\Users\ncer\AppData\Local\Temp\ccCNyymx.s 			page 1


   1              		.cpu cortex-m3
   2              		.eabi_attribute 20, 1
   3              		.eabi_attribute 21, 1
   4              		.eabi_attribute 23, 3
   5              		.eabi_attribute 24, 1
   6              		.eabi_attribute 25, 1
   7              		.eabi_attribute 26, 1
   8              		.eabi_attribute 30, 1
   9              		.eabi_attribute 34, 1
  10              		.eabi_attribute 18, 4
  11              		.file	"cmd_fun.c"
  12              		.text
  13              	.Ltext0:
  14              		.cfi_sections	.debug_frame
  15              		.section	.rodata.test.str1.4,"aMS",%progbits,1
  16              		.align	2
  17              	.LC0:
  18 0000 74686973 		.ascii	"this is testkk\015\012\000"
  18      20697320 
  18      74657374 
  18      6B6B0D0A 
  18      00
  19 0011 000000   		.align	2
  20              	.LC1:
  21 0014 69206765 		.ascii	"i get %d args\015\012\000"
  21      74202564 
  21      20617267 
  21      730D0A00 
  22              		.global	__aeabi_f2d
  23              		.align	2
  24              	.LC2:
  25 0024 6F6E6520 		.ascii	"one is %f\015\012\000"
  25      69732025 
  25      660D0A00 
  26              		.align	2
  27              	.LC3:
  28 0030 73747269 		.ascii	"string_prams is %s\015\012\000"
  28      6E675F70 
  28      72616D73 
  28      20697320 
  28      25730D0A 
  29              		.section	.text.test,"ax",%progbits
  30              		.align	1
  31              		.arch armv7-m
  32              		.syntax unified
  33              		.thumb
  34              		.thumb_func
  35              		.fpu softvfp
  37              	test:
  38              	.LVL0:
  39              	.LFB68:
  40              		.file 1 "Src/cmd_fun.c"
   1:Src/cmd_fun.c **** #include "cmd_fun.h"
   2:Src/cmd_fun.c **** #include "command.h"
   3:Src/cmd_fun.c **** #include "uart_ext.h"
   4:Src/cmd_fun.c **** 
   5:Src/cmd_fun.c **** 
ARM GAS  C:\Users\ncer\AppData\Local\Temp\ccCNyymx.s 			page 2


   6:Src/cmd_fun.c **** typedef struct{
   7:Src/cmd_fun.c ****   char * var_name;
   8:Src/cmd_fun.c ****   void * value_ptr;
   9:Src/cmd_fun.c **** }Var_Edit_Struct;
  10:Src/cmd_fun.c **** 
  11:Src/cmd_fun.c **** Var_Edit_Struct Var_List[10]={
  12:Src/cmd_fun.c ****   //{"first",&First_Time_Check}
  13:Src/cmd_fun.c ****   0
  14:Src/cmd_fun.c **** };
  15:Src/cmd_fun.c **** 
  16:Src/cmd_fun.c **** static void test(int arg_num,char **string_prams,float * arg){
  41              		.loc 1 16 62 view -0
  42              		.cfi_startproc
  43              		@ args = 0, pretend = 0, frame = 0
  44              		@ frame_needed = 0, uses_anonymous_args = 0
  45              		.loc 1 16 62 is_stmt 0 view .LVU1
  46 0000 F8B5     		push	{r3, r4, r5, r6, r7, lr}
  47              	.LCFI0:
  48              		.cfi_def_cfa_offset 24
  49              		.cfi_offset 3, -24
  50              		.cfi_offset 4, -20
  51              		.cfi_offset 5, -16
  52              		.cfi_offset 6, -12
  53              		.cfi_offset 7, -8
  54              		.cfi_offset 14, -4
  55 0002 0546     		mov	r5, r0
  56 0004 0E46     		mov	r6, r1
  57 0006 1746     		mov	r7, r2
  17:Src/cmd_fun.c ****   int i;
  58              		.loc 1 17 3 is_stmt 1 view .LVU2
  18:Src/cmd_fun.c ****   uprintf("this is testkk\r\n");
  59              		.loc 1 18 3 view .LVU3
  60 0008 1048     		ldr	r0, .L8
  61              	.LVL1:
  62              		.loc 1 18 3 is_stmt 0 view .LVU4
  63 000a FFF7FEFF 		bl	uprintf
  64              	.LVL2:
  19:Src/cmd_fun.c ****   uprintf("i get %d args\r\n",arg_num);
  65              		.loc 1 19 3 is_stmt 1 view .LVU5
  66 000e 2946     		mov	r1, r5
  67 0010 0F48     		ldr	r0, .L8+4
  68 0012 FFF7FEFF 		bl	uprintf
  69              	.LVL3:
  20:Src/cmd_fun.c ****   for(i=0;i<(arg_num&0xFF);++i){
  70              		.loc 1 20 3 view .LVU6
  71              		.loc 1 20 8 is_stmt 0 view .LVU7
  72 0016 0024     		movs	r4, #0
  73              	.LVL4:
  74              	.L2:
  75              		.loc 1 20 11 is_stmt 1 discriminator 1 view .LVU8
  76              		.loc 1 20 21 is_stmt 0 discriminator 1 view .LVU9
  77 0018 EBB2     		uxtb	r3, r5
  78              		.loc 1 20 3 discriminator 1 view .LVU10
  79 001a A342     		cmp	r3, r4
  80 001c 0ADD     		ble	.L7
  21:Src/cmd_fun.c ****     uprintf("one is %f\r\n",arg[i]);
  81              		.loc 1 21 5 is_stmt 1 discriminator 3 view .LVU11
ARM GAS  C:\Users\ncer\AppData\Local\Temp\ccCNyymx.s 			page 3


  82 001e 57F82400 		ldr	r0, [r7, r4, lsl #2]	@ float
  83 0022 FFF7FEFF 		bl	__aeabi_f2d
  84              	.LVL5:
  85 0026 0246     		mov	r2, r0
  86 0028 0B46     		mov	r3, r1
  87 002a 0A48     		ldr	r0, .L8+8
  88 002c FFF7FEFF 		bl	uprintf
  89              	.LVL6:
  20:Src/cmd_fun.c ****   for(i=0;i<(arg_num&0xFF);++i){
  90              		.loc 1 20 28 discriminator 3 view .LVU12
  91 0030 0134     		adds	r4, r4, #1
  92              	.LVL7:
  20:Src/cmd_fun.c ****   for(i=0;i<(arg_num&0xFF);++i){
  93              		.loc 1 20 28 is_stmt 0 discriminator 3 view .LVU13
  94 0032 F1E7     		b	.L2
  95              	.L7:
  22:Src/cmd_fun.c ****   }
  23:Src/cmd_fun.c ****   for(i=0;i<(arg_num>>8);++i){
  96              		.loc 1 23 8 view .LVU14
  97 0034 0024     		movs	r4, #0
  98              	.LVL8:
  99              		.loc 1 23 8 view .LVU15
 100 0036 05E0     		b	.L4
 101              	.LVL9:
 102              	.L5:
  24:Src/cmd_fun.c ****     uprintf("string_prams is %s\r\n",string_prams[i]);
 103              		.loc 1 24 5 is_stmt 1 discriminator 3 view .LVU16
 104 0038 56F82410 		ldr	r1, [r6, r4, lsl #2]
 105 003c 0648     		ldr	r0, .L8+12
 106 003e FFF7FEFF 		bl	uprintf
 107              	.LVL10:
  23:Src/cmd_fun.c ****     uprintf("string_prams is %s\r\n",string_prams[i]);
 108              		.loc 1 23 26 discriminator 3 view .LVU17
 109 0042 0134     		adds	r4, r4, #1
 110              	.LVL11:
 111              	.L4:
  23:Src/cmd_fun.c ****     uprintf("string_prams is %s\r\n",string_prams[i]);
 112              		.loc 1 23 11 discriminator 1 view .LVU18
  23:Src/cmd_fun.c ****     uprintf("string_prams is %s\r\n",string_prams[i]);
 113              		.loc 1 23 3 is_stmt 0 discriminator 1 view .LVU19
 114 0044 B4EB252F 		cmp	r4, r5, asr #8
 115 0048 F6DB     		blt	.L5
  25:Src/cmd_fun.c ****   }
  26:Src/cmd_fun.c **** }
 116              		.loc 1 26 1 view .LVU20
 117 004a F8BD     		pop	{r3, r4, r5, r6, r7, pc}
 118              	.LVL12:
 119              	.L9:
 120              		.loc 1 26 1 view .LVU21
 121              		.align	2
 122              	.L8:
 123 004c 00000000 		.word	.LC0
 124 0050 14000000 		.word	.LC1
 125 0054 24000000 		.word	.LC2
 126 0058 30000000 		.word	.LC3
 127              		.cfi_endproc
 128              	.LFE68:
ARM GAS  C:\Users\ncer\AppData\Local\Temp\ccCNyymx.s 			page 4


 130              		.section	.rodata.set_PID.str1.4,"aMS",%progbits,1
 131              		.align	2
 132              	.LC4:
 133 0000 6572726F 		.ascii	"error arg_num!\015\012\000"
 133      72206172 
 133      675F6E75 
 133      6D210D0A 
 133      00
 134 0011 000000   		.align	2
 135              	.LC5:
 136 0014 70697463 		.ascii	"pitch\000"
 136      6800
 137 001a 0000     		.align	2
 138              	.LC6:
 139 001c 74686574 		.ascii	"theta\000"
 139      6100
 140 0022 0000     		.align	2
 141              	.LC7:
 142 0024 726F6C6C 		.ascii	"roll\000"
 142      00
 143 0029 000000   		.align	2
 144              	.LC8:
 145 002c 726F6C6C 		.ascii	"roll_a\000"
 145      5F6100
 146 0033 00       		.align	2
 147              	.LC9:
 148 0034 74686574 		.ascii	"theta_a\000"
 148      615F6100 
 149              		.align	2
 150              	.LC10:
 151 003c 70697463 		.ascii	"pitch_a\000"
 151      685F6100 
 152              		.align	2
 153              	.LC11:
 154 0044 7000     		.ascii	"p\000"
 155 0046 0000     		.align	2
 156              	.LC12:
 157 0048 6400     		.ascii	"d\000"
 158 004a 0000     		.align	2
 159              	.LC13:
 160 004c 6900     		.ascii	"i\000"
 161 004e 0000     		.align	2
 162              	.LC14:
 163 0050 6F6B2073 		.ascii	"ok set %s 's %s = %f\015\012\000"
 163      65742025 
 163      73202773 
 163      20257320 
 163      3D202566 
 164              		.section	.text.set_PID,"ax",%progbits
 165              		.align	1
 166              		.global	set_PID
 167              		.syntax unified
 168              		.thumb
 169              		.thumb_func
 170              		.fpu softvfp
 172              	set_PID:
 173              	.LVL13:
ARM GAS  C:\Users\ncer\AppData\Local\Temp\ccCNyymx.s 			page 5


 174              	.LFB73:
  27:Src/cmd_fun.c **** 
  28:Src/cmd_fun.c **** void set_val(int arg_num,char ** s,float * args){
  29:Src/cmd_fun.c ****   void * edit_value;
  30:Src/cmd_fun.c ****   if(arg_num!=0x0201){
  31:Src/cmd_fun.c ****     uprintf("error arg_num!\r\n");
  32:Src/cmd_fun.c ****     return ;
  33:Src/cmd_fun.c ****   }
  34:Src/cmd_fun.c **** 
  35:Src/cmd_fun.c ****   for(int i=0;i<sizeof(Var_List)/sizeof(Var_Edit_Struct);++i){
  36:Src/cmd_fun.c ****     if(compare_string(Var_List[i].var_name,s[0])){
  37:Src/cmd_fun.c ****       edit_value=Var_List[i].value_ptr;
  38:Src/cmd_fun.c ****       break;
  39:Src/cmd_fun.c ****     }
  40:Src/cmd_fun.c ****   }
  41:Src/cmd_fun.c ****   
  42:Src/cmd_fun.c ****   if(compare_string(s[1],"u8")){
  43:Src/cmd_fun.c ****     *(uint8_t *)edit_value=(uint8_t)args[0];
  44:Src/cmd_fun.c ****     uprintf("ok set %s = %d\r\n",s[0],*(uint8_t *)edit_value);  
  45:Src/cmd_fun.c ****   }else if(compare_string(s[1],"int")){
  46:Src/cmd_fun.c ****     *(int16_t *)edit_value=(int16_t)args[0];
  47:Src/cmd_fun.c ****     uprintf("ok set %s = %d\r\n",s[0],*(int16_t *)edit_value);
  48:Src/cmd_fun.c ****   }else if(compare_string(s[1],"f")){
  49:Src/cmd_fun.c ****     *(float *)edit_value=args[0];
  50:Src/cmd_fun.c ****     uprintf("ok set %s = %f\r\n",s[0],*(float *)edit_value);
  51:Src/cmd_fun.c ****   }
  52:Src/cmd_fun.c **** }
  53:Src/cmd_fun.c **** 
  54:Src/cmd_fun.c **** 
  55:Src/cmd_fun.c **** 
  56:Src/cmd_fun.c **** 
  57:Src/cmd_fun.c **** /*
  58:Src/cmd_fun.c **** 下面定义用户需要的函数
  59:Src/cmd_fun.c **** 
  60:Src/cmd_fun.c **** */
  61:Src/cmd_fun.c **** 
  62:Src/cmd_fun.c **** #include "tim.h"
  63:Src/cmd_fun.c **** 
  64:Src/cmd_fun.c **** void TIM_test(int arg_num,char ** s,float * args){
  65:Src/cmd_fun.c ****   if(arg_num!=0x0003 && arg_num!=0x0002 && arg_num!=0x0001){
  66:Src/cmd_fun.c ****     uprintf("error argnum!\r\n");
  67:Src/cmd_fun.c ****     return ;
  68:Src/cmd_fun.c ****   }
  69:Src/cmd_fun.c ****   
  70:Src/cmd_fun.c ****   if(arg_num==0x0001){
  71:Src/cmd_fun.c ****     TIM3->CCR3=Caculate_Cnt(&htim3,64,(int)args[0]);
  72:Src/cmd_fun.c ****     TIM3->CCR4=Caculate_Cnt(&htim3,64,(int)args[0]);
  73:Src/cmd_fun.c ****     uprintf("ok,set width =%d \r\n",(int)args[0]);
  74:Src/cmd_fun.c ****   }else if(arg_num==0x0002){
  75:Src/cmd_fun.c ****     if((int)args[0]==2){
  76:Src/cmd_fun.c ****       TIM2->CCR1=Caculate_Cnt(&htim2,64,(int)args[1]);
  77:Src/cmd_fun.c ****       TIM2->CCR2=Caculate_Cnt(&htim2,64,(int)args[1]);     
  78:Src/cmd_fun.c ****     }else{
  79:Src/cmd_fun.c ****       TIM3->CCR3=Caculate_Cnt(&htim3,64,(int)args[1]);
  80:Src/cmd_fun.c ****       TIM3->CCR4=Caculate_Cnt(&htim3,64,(int)args[1]);
  81:Src/cmd_fun.c ****     }
  82:Src/cmd_fun.c ****   }else if(arg_num==0x0003){
ARM GAS  C:\Users\ncer\AppData\Local\Temp\ccCNyymx.s 			page 6


  83:Src/cmd_fun.c ****     // args[0] TIM2 TIM3
  84:Src/cmd_fun.c ****     // args[1] CH1 CH2 CH3 CH4
  85:Src/cmd_fun.c ****     // args[2] pulse width
  86:Src/cmd_fun.c ****     volatile uint32_t * ptr=0;
  87:Src/cmd_fun.c ****     int32_t cnt=0;
  88:Src/cmd_fun.c ****     if((int)args[0]==2){
  89:Src/cmd_fun.c ****       ptr=&(TIM2->CCR1);
  90:Src/cmd_fun.c ****       cnt=Caculate_Cnt(&htim2,64,(int)args[2]); 
  91:Src/cmd_fun.c ****     }else{
  92:Src/cmd_fun.c ****       ptr=&(TIM3->CCR1);
  93:Src/cmd_fun.c ****       cnt=Caculate_Cnt(&htim3,64,(int)args[2]); 
  94:Src/cmd_fun.c ****     }
  95:Src/cmd_fun.c ****     ptr+=(int)args[1];
  96:Src/cmd_fun.c ****     *ptr=cnt;
  97:Src/cmd_fun.c ****   }
  98:Src/cmd_fun.c ****   
  99:Src/cmd_fun.c **** }
 100:Src/cmd_fun.c **** 
 101:Src/cmd_fun.c **** #include "control.h"
 102:Src/cmd_fun.c **** void servor_test(int arg_num,char ** s,float * args){
 103:Src/cmd_fun.c ****   if(arg_num!=0x0001&&arg_num!=0x0101){
 104:Src/cmd_fun.c ****     uprintf("error arg_num!\r\n");
 105:Src/cmd_fun.c ****     return ;
 106:Src/cmd_fun.c ****   }
 107:Src/cmd_fun.c ****   if(arg_num==0x0001){
 108:Src/cmd_fun.c ****     Set_Servor(L_Servor,args[0]);
 109:Src/cmd_fun.c ****     Set_Servor(R_Servor,args[0]);
 110:Src/cmd_fun.c ****   }
 111:Src/cmd_fun.c **** }
 112:Src/cmd_fun.c **** 
 113:Src/cmd_fun.c **** void esc_test(int arg_num,char ** s,float * args){
 114:Src/cmd_fun.c ****   if(arg_num!=0x0001&&arg_num!=0x0101){
 115:Src/cmd_fun.c ****     uprintf("error arg_num!\r\n");
 116:Src/cmd_fun.c ****     return ;
 117:Src/cmd_fun.c ****   }
 118:Src/cmd_fun.c ****   if(arg_num==0x0001){
 119:Src/cmd_fun.c ****     Set_ESC(L_ESC,args[0]);
 120:Src/cmd_fun.c ****     Set_ESC(R_ESC,args[0]);
 121:Src/cmd_fun.c ****   }else{
 122:Src/cmd_fun.c ****     if(s[0][0]=='l'){
 123:Src/cmd_fun.c ****       Set_ESC(L_ESC,args[0]);
 124:Src/cmd_fun.c ****     }else{
 125:Src/cmd_fun.c ****       Set_ESC(R_ESC,args[0]);
 126:Src/cmd_fun.c ****     }
 127:Src/cmd_fun.c ****   }
 128:Src/cmd_fun.c **** }
 129:Src/cmd_fun.c **** 
 130:Src/cmd_fun.c **** #include "pid.h"
 131:Src/cmd_fun.c **** extern PID_S Pitch_PID;
 132:Src/cmd_fun.c **** extern PID_S Theta_PID;
 133:Src/cmd_fun.c **** extern PID_S Roll_PID;
 134:Src/cmd_fun.c **** PID_S Pitch_Angle_Speed_PID;
 135:Src/cmd_fun.c **** PID_S Roll_Angle_Speed_PID;
 136:Src/cmd_fun.c **** PID_S Theta_Angle_Speed_PID;
 137:Src/cmd_fun.c **** 
 138:Src/cmd_fun.c **** /*
 139:Src/cmd_fun.c ****   eg: set_pid pitch p 5
ARM GAS  C:\Users\ncer\AppData\Local\Temp\ccCNyymx.s 			page 7


 140:Src/cmd_fun.c **** */
 141:Src/cmd_fun.c **** 
 142:Src/cmd_fun.c **** void set_PID(int arg_num,char ** s,float * args){
 175              		.loc 1 142 49 is_stmt 1 view -0
 176              		.cfi_startproc
 177              		@ args = 0, pretend = 0, frame = 0
 178              		@ frame_needed = 0, uses_anonymous_args = 0
 179              		.loc 1 142 49 is_stmt 0 view .LVU23
 180 0000 F0B5     		push	{r4, r5, r6, r7, lr}
 181              	.LCFI1:
 182              		.cfi_def_cfa_offset 20
 183              		.cfi_offset 4, -20
 184              		.cfi_offset 5, -16
 185              		.cfi_offset 6, -12
 186              		.cfi_offset 7, -8
 187              		.cfi_offset 14, -4
 188 0002 83B0     		sub	sp, sp, #12
 189              	.LCFI2:
 190              		.cfi_def_cfa_offset 32
 143:Src/cmd_fun.c ****   PID_S * pid_s;
 191              		.loc 1 143 3 is_stmt 1 view .LVU24
 144:Src/cmd_fun.c ****   float * kpkdki;
 192              		.loc 1 144 3 view .LVU25
 145:Src/cmd_fun.c ****   if(arg_num!=0x0201){
 193              		.loc 1 145 3 view .LVU26
 194              		.loc 1 145 5 is_stmt 0 view .LVU27
 195 0004 40F20123 		movw	r3, #513
 196 0008 9842     		cmp	r0, r3
 197 000a 04D0     		beq	.L11
 146:Src/cmd_fun.c ****     uprintf("error arg_num!\r\n");
 198              		.loc 1 146 5 is_stmt 1 view .LVU28
 199 000c 2A48     		ldr	r0, .L29
 200              	.LVL14:
 201              		.loc 1 146 5 is_stmt 0 view .LVU29
 202 000e FFF7FEFF 		bl	uprintf
 203              	.LVL15:
 147:Src/cmd_fun.c ****     return ;
 204              		.loc 1 147 5 is_stmt 1 view .LVU30
 205              	.L10:
 148:Src/cmd_fun.c ****   }
 149:Src/cmd_fun.c ****   if(compare_string(s[0],"pitch")){
 150:Src/cmd_fun.c ****     pid_s=&Pitch_PID;
 151:Src/cmd_fun.c ****   }else if(compare_string(s[0],"theta")){
 152:Src/cmd_fun.c ****     pid_s=&Theta_PID;
 153:Src/cmd_fun.c ****   }else if(compare_string(s[0],"roll")){
 154:Src/cmd_fun.c ****     pid_s=&Roll_PID;
 155:Src/cmd_fun.c ****   }else if(compare_string(s[0],"roll_a")){
 156:Src/cmd_fun.c ****     pid_s=&Roll_Angle_Speed_PID;
 157:Src/cmd_fun.c ****   }else if(compare_string(s[0],"theta_a")){
 158:Src/cmd_fun.c ****     pid_s=&Theta_Angle_Speed_PID;
 159:Src/cmd_fun.c ****   }else if(compare_string(s[0],"pitch_a")){
 160:Src/cmd_fun.c ****     pid_s=&Pitch_Angle_Speed_PID;
 161:Src/cmd_fun.c ****   }
 162:Src/cmd_fun.c ****   
 163:Src/cmd_fun.c ****   if(compare_string(s[1],"p")){
 164:Src/cmd_fun.c ****     kpkdki=&(pid_s->KP);
 165:Src/cmd_fun.c ****   }else if(compare_string(s[1],"d")){
ARM GAS  C:\Users\ncer\AppData\Local\Temp\ccCNyymx.s 			page 8


 166:Src/cmd_fun.c ****     kpkdki=&(pid_s->KD);
 167:Src/cmd_fun.c ****   }else if(compare_string(s[1],"i")){
 168:Src/cmd_fun.c ****     kpkdki=&(pid_s->KI);
 169:Src/cmd_fun.c ****   }
 170:Src/cmd_fun.c ****   *kpkdki=args[0];
 171:Src/cmd_fun.c ****   uprintf("ok set %s 's %s = %f\r\n",s[0],s[1],args[0]);
 172:Src/cmd_fun.c **** }
 206              		.loc 1 172 1 is_stmt 0 view .LVU31
 207 0012 03B0     		add	sp, sp, #12
 208              	.LCFI3:
 209              		.cfi_remember_state
 210              		.cfi_def_cfa_offset 20
 211              		@ sp needed
 212 0014 F0BD     		pop	{r4, r5, r6, r7, pc}
 213              	.LVL16:
 214              	.L11:
 215              	.LCFI4:
 216              		.cfi_restore_state
 217              		.loc 1 172 1 view .LVU32
 218 0016 0C46     		mov	r4, r1
 219 0018 1546     		mov	r5, r2
 149:Src/cmd_fun.c ****     pid_s=&Pitch_PID;
 220              		.loc 1 149 3 is_stmt 1 view .LVU33
 149:Src/cmd_fun.c ****     pid_s=&Pitch_PID;
 221              		.loc 1 149 6 is_stmt 0 view .LVU34
 222 001a 2849     		ldr	r1, .L29+4
 223              	.LVL17:
 149:Src/cmd_fun.c ****     pid_s=&Pitch_PID;
 224              		.loc 1 149 6 view .LVU35
 225 001c 2068     		ldr	r0, [r4]
 226              	.LVL18:
 149:Src/cmd_fun.c ****     pid_s=&Pitch_PID;
 227              		.loc 1 149 6 view .LVU36
 228 001e FFF7FEFF 		bl	compare_string
 229              	.LVL19:
 149:Src/cmd_fun.c ****     pid_s=&Pitch_PID;
 230              		.loc 1 149 5 view .LVU37
 231 0022 A8B1     		cbz	r0, .L24
 150:Src/cmd_fun.c ****   }else if(compare_string(s[0],"theta")){
 232              		.loc 1 150 10 view .LVU38
 233 0024 264F     		ldr	r7, .L29+8
 234              	.L13:
 235              	.LVL20:
 163:Src/cmd_fun.c ****     kpkdki=&(pid_s->KP);
 236              		.loc 1 163 3 is_stmt 1 view .LVU39
 163:Src/cmd_fun.c ****     kpkdki=&(pid_s->KP);
 237              		.loc 1 163 6 is_stmt 0 view .LVU40
 238 0026 2749     		ldr	r1, .L29+12
 239 0028 6068     		ldr	r0, [r4, #4]
 240 002a FFF7FEFF 		bl	compare_string
 241              	.LVL21:
 163:Src/cmd_fun.c ****     kpkdki=&(pid_s->KP);
 242              		.loc 1 163 5 view .LVU41
 243 002e 0028     		cmp	r0, #0
 244 0030 32D0     		beq	.L14
 164:Src/cmd_fun.c ****   }else if(compare_string(s[1],"d")){
 245              		.loc 1 164 5 is_stmt 1 view .LVU42
ARM GAS  C:\Users\ncer\AppData\Local\Temp\ccCNyymx.s 			page 9


 164:Src/cmd_fun.c ****   }else if(compare_string(s[1],"d")){
 246              		.loc 1 164 11 is_stmt 0 view .LVU43
 247 0032 3E46     		mov	r6, r7
 248              	.LVL22:
 249              	.L15:
 170:Src/cmd_fun.c ****   uprintf("ok set %s 's %s = %f\r\n",s[0],s[1],args[0]);
 250              		.loc 1 170 3 is_stmt 1 view .LVU44
 170:Src/cmd_fun.c ****   uprintf("ok set %s 's %s = %f\r\n",s[0],s[1],args[0]);
 251              		.loc 1 170 15 is_stmt 0 view .LVU45
 252 0034 2868     		ldr	r0, [r5]	@ float
 170:Src/cmd_fun.c ****   uprintf("ok set %s 's %s = %f\r\n",s[0],s[1],args[0]);
 253              		.loc 1 170 10 view .LVU46
 254 0036 3060     		str	r0, [r6]	@ float
 171:Src/cmd_fun.c **** }
 255              		.loc 1 171 3 is_stmt 1 view .LVU47
 256 0038 6568     		ldr	r5, [r4, #4]
 257              	.LVL23:
 171:Src/cmd_fun.c **** }
 258              		.loc 1 171 3 is_stmt 0 view .LVU48
 259 003a 2468     		ldr	r4, [r4]
 260              	.LVL24:
 171:Src/cmd_fun.c **** }
 261              		.loc 1 171 3 view .LVU49
 262 003c FFF7FEFF 		bl	__aeabi_f2d
 263              	.LVL25:
 264 0040 CDE90001 		strd	r0, [sp]
 265 0044 2A46     		mov	r2, r5
 266 0046 2146     		mov	r1, r4
 267 0048 1F48     		ldr	r0, .L29+16
 268 004a FFF7FEFF 		bl	uprintf
 269              	.LVL26:
 270 004e E0E7     		b	.L10
 271              	.LVL27:
 272              	.L24:
 151:Src/cmd_fun.c ****     pid_s=&Theta_PID;
 273              		.loc 1 151 9 is_stmt 1 view .LVU50
 151:Src/cmd_fun.c ****     pid_s=&Theta_PID;
 274              		.loc 1 151 12 is_stmt 0 view .LVU51
 275 0050 1E49     		ldr	r1, .L29+20
 276 0052 2068     		ldr	r0, [r4]
 277 0054 FFF7FEFF 		bl	compare_string
 278              	.LVL28:
 151:Src/cmd_fun.c ****     pid_s=&Theta_PID;
 279              		.loc 1 151 11 view .LVU52
 280 0058 08B1     		cbz	r0, .L25
 152:Src/cmd_fun.c ****   }else if(compare_string(s[0],"roll")){
 281              		.loc 1 152 10 view .LVU53
 282 005a 1D4F     		ldr	r7, .L29+24
 283 005c E3E7     		b	.L13
 284              	.L25:
 153:Src/cmd_fun.c ****     pid_s=&Roll_PID;
 285              		.loc 1 153 9 is_stmt 1 view .LVU54
 153:Src/cmd_fun.c ****     pid_s=&Roll_PID;
 286              		.loc 1 153 12 is_stmt 0 view .LVU55
 287 005e 1D49     		ldr	r1, .L29+28
 288 0060 2068     		ldr	r0, [r4]
 289 0062 FFF7FEFF 		bl	compare_string
ARM GAS  C:\Users\ncer\AppData\Local\Temp\ccCNyymx.s 			page 10


 290              	.LVL29:
 153:Src/cmd_fun.c ****     pid_s=&Roll_PID;
 291              		.loc 1 153 11 view .LVU56
 292 0066 08B1     		cbz	r0, .L26
 154:Src/cmd_fun.c ****   }else if(compare_string(s[0],"roll_a")){
 293              		.loc 1 154 10 view .LVU57
 294 0068 1B4F     		ldr	r7, .L29+32
 295 006a DCE7     		b	.L13
 296              	.L26:
 155:Src/cmd_fun.c ****     pid_s=&Roll_Angle_Speed_PID;
 297              		.loc 1 155 9 is_stmt 1 view .LVU58
 155:Src/cmd_fun.c ****     pid_s=&Roll_Angle_Speed_PID;
 298              		.loc 1 155 12 is_stmt 0 view .LVU59
 299 006c 1B49     		ldr	r1, .L29+36
 300 006e 2068     		ldr	r0, [r4]
 301 0070 FFF7FEFF 		bl	compare_string
 302              	.LVL30:
 155:Src/cmd_fun.c ****     pid_s=&Roll_Angle_Speed_PID;
 303              		.loc 1 155 11 view .LVU60
 304 0074 08B1     		cbz	r0, .L27
 156:Src/cmd_fun.c ****   }else if(compare_string(s[0],"theta_a")){
 305              		.loc 1 156 10 view .LVU61
 306 0076 1A4F     		ldr	r7, .L29+40
 307 0078 D5E7     		b	.L13
 308              	.L27:
 157:Src/cmd_fun.c ****     pid_s=&Theta_Angle_Speed_PID;
 309              		.loc 1 157 9 is_stmt 1 view .LVU62
 157:Src/cmd_fun.c ****     pid_s=&Theta_Angle_Speed_PID;
 310              		.loc 1 157 12 is_stmt 0 view .LVU63
 311 007a 1A49     		ldr	r1, .L29+44
 312 007c 2068     		ldr	r0, [r4]
 313 007e FFF7FEFF 		bl	compare_string
 314              	.LVL31:
 157:Src/cmd_fun.c ****     pid_s=&Theta_Angle_Speed_PID;
 315              		.loc 1 157 11 view .LVU64
 316 0082 08B1     		cbz	r0, .L28
 158:Src/cmd_fun.c ****   }else if(compare_string(s[0],"pitch_a")){
 317              		.loc 1 158 10 view .LVU65
 318 0084 184F     		ldr	r7, .L29+48
 319 0086 CEE7     		b	.L13
 320              	.L28:
 159:Src/cmd_fun.c ****     pid_s=&Pitch_Angle_Speed_PID;
 321              		.loc 1 159 9 is_stmt 1 view .LVU66
 159:Src/cmd_fun.c ****     pid_s=&Pitch_Angle_Speed_PID;
 322              		.loc 1 159 12 is_stmt 0 view .LVU67
 323 0088 1849     		ldr	r1, .L29+52
 324 008a 2068     		ldr	r0, [r4]
 325 008c FFF7FEFF 		bl	compare_string
 326              	.LVL32:
 159:Src/cmd_fun.c ****     pid_s=&Pitch_Angle_Speed_PID;
 327              		.loc 1 159 11 view .LVU68
 328 0090 0028     		cmp	r0, #0
 329 0092 C8D0     		beq	.L13
 160:Src/cmd_fun.c ****   }
 330              		.loc 1 160 10 view .LVU69
 331 0094 164F     		ldr	r7, .L29+56
 332 0096 C6E7     		b	.L13
ARM GAS  C:\Users\ncer\AppData\Local\Temp\ccCNyymx.s 			page 11


 333              	.LVL33:
 334              	.L14:
 165:Src/cmd_fun.c ****     kpkdki=&(pid_s->KD);
 335              		.loc 1 165 9 is_stmt 1 view .LVU70
 165:Src/cmd_fun.c ****     kpkdki=&(pid_s->KD);
 336              		.loc 1 165 12 is_stmt 0 view .LVU71
 337 0098 1649     		ldr	r1, .L29+60
 338 009a 6068     		ldr	r0, [r4, #4]
 339 009c FFF7FEFF 		bl	compare_string
 340              	.LVL34:
 165:Src/cmd_fun.c ****     kpkdki=&(pid_s->KD);
 341              		.loc 1 165 11 view .LVU72
 342 00a0 08B1     		cbz	r0, .L16
 166:Src/cmd_fun.c ****   }else if(compare_string(s[1],"i")){
 343              		.loc 1 166 5 is_stmt 1 view .LVU73
 166:Src/cmd_fun.c ****   }else if(compare_string(s[1],"i")){
 344              		.loc 1 166 11 is_stmt 0 view .LVU74
 345 00a2 3E1D     		adds	r6, r7, #4
 346              	.LVL35:
 166:Src/cmd_fun.c ****   }else if(compare_string(s[1],"i")){
 347              		.loc 1 166 11 view .LVU75
 348 00a4 C6E7     		b	.L15
 349              	.LVL36:
 350              	.L16:
 167:Src/cmd_fun.c ****     kpkdki=&(pid_s->KI);
 351              		.loc 1 167 9 is_stmt 1 view .LVU76
 167:Src/cmd_fun.c ****     kpkdki=&(pid_s->KI);
 352              		.loc 1 167 12 is_stmt 0 view .LVU77
 353 00a6 1449     		ldr	r1, .L29+64
 354 00a8 6068     		ldr	r0, [r4, #4]
 355 00aa FFF7FEFF 		bl	compare_string
 356              	.LVL37:
 167:Src/cmd_fun.c ****     kpkdki=&(pid_s->KI);
 357              		.loc 1 167 11 view .LVU78
 358 00ae 0028     		cmp	r0, #0
 359 00b0 C0D0     		beq	.L15
 168:Src/cmd_fun.c ****   }
 360              		.loc 1 168 5 is_stmt 1 view .LVU79
 168:Src/cmd_fun.c ****   }
 361              		.loc 1 168 11 is_stmt 0 view .LVU80
 362 00b2 07F10806 		add	r6, r7, #8
 363              	.LVL38:
 168:Src/cmd_fun.c ****   }
 364              		.loc 1 168 11 view .LVU81
 365 00b6 BDE7     		b	.L15
 366              	.L30:
 367              		.align	2
 368              	.L29:
 369 00b8 00000000 		.word	.LC4
 370 00bc 14000000 		.word	.LC5
 371 00c0 00000000 		.word	Pitch_PID
 372 00c4 44000000 		.word	.LC11
 373 00c8 50000000 		.word	.LC14
 374 00cc 1C000000 		.word	.LC6
 375 00d0 00000000 		.word	Theta_PID
 376 00d4 24000000 		.word	.LC7
 377 00d8 00000000 		.word	Roll_PID
ARM GAS  C:\Users\ncer\AppData\Local\Temp\ccCNyymx.s 			page 12


 378 00dc 2C000000 		.word	.LC8
 379 00e0 00000000 		.word	Roll_Angle_Speed_PID
 380 00e4 34000000 		.word	.LC9
 381 00e8 00000000 		.word	Theta_Angle_Speed_PID
 382 00ec 3C000000 		.word	.LC10
 383 00f0 00000000 		.word	Pitch_Angle_Speed_PID
 384 00f4 48000000 		.word	.LC12
 385 00f8 4C000000 		.word	.LC13
 386              		.cfi_endproc
 387              	.LFE73:
 389              		.section	.rodata.TIM_test.str1.4,"aMS",%progbits,1
 390              		.align	2
 391              	.LC15:
 392 0000 6572726F 		.ascii	"error argnum!\015\012\000"
 392      72206172 
 392      676E756D 
 392      210D0A00 
 393              		.global	__aeabi_f2iz
 394              		.align	2
 395              	.LC16:
 396 0010 6F6B2C73 		.ascii	"ok,set width =%d \015\012\000"
 396      65742077 
 396      69647468 
 396      203D2564 
 396      200D0A00 
 397              		.section	.text.TIM_test,"ax",%progbits
 398              		.align	1
 399              		.global	TIM_test
 400              		.syntax unified
 401              		.thumb
 402              		.thumb_func
 403              		.fpu softvfp
 405              	TIM_test:
 406              	.LVL39:
 407              	.LFB70:
  64:Src/cmd_fun.c ****   if(arg_num!=0x0003 && arg_num!=0x0002 && arg_num!=0x0001){
 408              		.loc 1 64 50 is_stmt 1 view -0
 409              		.cfi_startproc
 410              		@ args = 0, pretend = 0, frame = 0
 411              		@ frame_needed = 0, uses_anonymous_args = 0
  64:Src/cmd_fun.c ****   if(arg_num!=0x0003 && arg_num!=0x0002 && arg_num!=0x0001){
 412              		.loc 1 64 50 is_stmt 0 view .LVU83
 413 0000 70B5     		push	{r4, r5, r6, lr}
 414              	.LCFI5:
 415              		.cfi_def_cfa_offset 16
 416              		.cfi_offset 4, -16
 417              		.cfi_offset 5, -12
 418              		.cfi_offset 6, -8
 419              		.cfi_offset 14, -4
  65:Src/cmd_fun.c ****     uprintf("error argnum!\r\n");
 420              		.loc 1 65 3 is_stmt 1 view .LVU84
  65:Src/cmd_fun.c ****     uprintf("error argnum!\r\n");
 421              		.loc 1 65 41 is_stmt 0 view .LVU85
 422 0002 431E     		subs	r3, r0, #1
  65:Src/cmd_fun.c ****     uprintf("error argnum!\r\n");
 423              		.loc 1 65 5 view .LVU86
 424 0004 022B     		cmp	r3, #2
ARM GAS  C:\Users\ncer\AppData\Local\Temp\ccCNyymx.s 			page 13


 425 0006 07D8     		bhi	.L40
 426 0008 1446     		mov	r4, r2
  70:Src/cmd_fun.c ****     TIM3->CCR3=Caculate_Cnt(&htim3,64,(int)args[0]);
 427              		.loc 1 70 3 is_stmt 1 view .LVU87
  70:Src/cmd_fun.c ****     TIM3->CCR3=Caculate_Cnt(&htim3,64,(int)args[0]);
 428              		.loc 1 70 5 is_stmt 0 view .LVU88
 429 000a 0128     		cmp	r0, #1
 430 000c 08D0     		beq	.L41
  74:Src/cmd_fun.c ****     if((int)args[0]==2){
 431              		.loc 1 74 9 is_stmt 1 view .LVU89
  74:Src/cmd_fun.c ****     if((int)args[0]==2){
 432              		.loc 1 74 11 is_stmt 0 view .LVU90
 433 000e 0228     		cmp	r0, #2
 434 0010 22D0     		beq	.L42
  82:Src/cmd_fun.c ****     // args[0] TIM2 TIM3
 435              		.loc 1 82 9 is_stmt 1 view .LVU91
  82:Src/cmd_fun.c ****     // args[0] TIM2 TIM3
 436              		.loc 1 82 11 is_stmt 0 view .LVU92
 437 0012 0328     		cmp	r0, #3
 438 0014 50D0     		beq	.L43
 439              	.LVL40:
 440              	.L31:
  99:Src/cmd_fun.c **** 
 441              		.loc 1 99 1 view .LVU93
 442 0016 70BD     		pop	{r4, r5, r6, pc}
 443              	.LVL41:
 444              	.L40:
  66:Src/cmd_fun.c ****     return ;
 445              		.loc 1 66 5 is_stmt 1 view .LVU94
 446 0018 3748     		ldr	r0, .L46
 447              	.LVL42:
  66:Src/cmd_fun.c ****     return ;
 448              		.loc 1 66 5 is_stmt 0 view .LVU95
 449 001a FFF7FEFF 		bl	uprintf
 450              	.LVL43:
  67:Src/cmd_fun.c ****   }
 451              		.loc 1 67 5 is_stmt 1 view .LVU96
 452 001e FAE7     		b	.L31
 453              	.LVL44:
 454              	.L41:
  71:Src/cmd_fun.c ****     TIM3->CCR4=Caculate_Cnt(&htim3,64,(int)args[0]);
 455              		.loc 1 71 5 view .LVU97
  71:Src/cmd_fun.c ****     TIM3->CCR4=Caculate_Cnt(&htim3,64,(int)args[0]);
 456              		.loc 1 71 16 is_stmt 0 view .LVU98
 457 0020 1068     		ldr	r0, [r2]	@ float
 458              	.LVL45:
  71:Src/cmd_fun.c ****     TIM3->CCR4=Caculate_Cnt(&htim3,64,(int)args[0]);
 459              		.loc 1 71 16 view .LVU99
 460 0022 FFF7FEFF 		bl	__aeabi_f2iz
 461              	.LVL46:
  71:Src/cmd_fun.c ****     TIM3->CCR4=Caculate_Cnt(&htim3,64,(int)args[0]);
 462              		.loc 1 71 16 view .LVU100
 463 0026 0246     		mov	r2, r0
 464 0028 344E     		ldr	r6, .L46+4
 465 002a 4021     		movs	r1, #64
 466 002c 3046     		mov	r0, r6
 467 002e FFF7FEFF 		bl	Caculate_Cnt
ARM GAS  C:\Users\ncer\AppData\Local\Temp\ccCNyymx.s 			page 14


 468              	.LVL47:
  71:Src/cmd_fun.c ****     TIM3->CCR4=Caculate_Cnt(&htim3,64,(int)args[0]);
 469              		.loc 1 71 15 view .LVU101
 470 0032 334D     		ldr	r5, .L46+8
 471 0034 E863     		str	r0, [r5, #60]
  72:Src/cmd_fun.c ****     uprintf("ok,set width =%d \r\n",(int)args[0]);
 472              		.loc 1 72 5 is_stmt 1 view .LVU102
  72:Src/cmd_fun.c ****     uprintf("ok,set width =%d \r\n",(int)args[0]);
 473              		.loc 1 72 16 is_stmt 0 view .LVU103
 474 0036 2068     		ldr	r0, [r4]	@ float
 475 0038 FFF7FEFF 		bl	__aeabi_f2iz
 476              	.LVL48:
 477 003c 0246     		mov	r2, r0
 478 003e 4021     		movs	r1, #64
 479 0040 3046     		mov	r0, r6
 480 0042 FFF7FEFF 		bl	Caculate_Cnt
 481              	.LVL49:
  72:Src/cmd_fun.c ****     uprintf("ok,set width =%d \r\n",(int)args[0]);
 482              		.loc 1 72 15 view .LVU104
 483 0046 2864     		str	r0, [r5, #64]
  73:Src/cmd_fun.c ****   }else if(arg_num==0x0002){
 484              		.loc 1 73 5 is_stmt 1 view .LVU105
 485 0048 2068     		ldr	r0, [r4]	@ float
 486 004a FFF7FEFF 		bl	__aeabi_f2iz
 487              	.LVL50:
 488 004e 0146     		mov	r1, r0
 489 0050 2C48     		ldr	r0, .L46+12
 490 0052 FFF7FEFF 		bl	uprintf
 491              	.LVL51:
 492 0056 DEE7     		b	.L31
 493              	.LVL52:
 494              	.L42:
  75:Src/cmd_fun.c ****       TIM2->CCR1=Caculate_Cnt(&htim2,64,(int)args[1]);
 495              		.loc 1 75 5 view .LVU106
  75:Src/cmd_fun.c ****       TIM2->CCR1=Caculate_Cnt(&htim2,64,(int)args[1]);
 496              		.loc 1 75 8 is_stmt 0 view .LVU107
 497 0058 1068     		ldr	r0, [r2]	@ float
 498              	.LVL53:
  75:Src/cmd_fun.c ****       TIM2->CCR1=Caculate_Cnt(&htim2,64,(int)args[1]);
 499              		.loc 1 75 8 view .LVU108
 500 005a FFF7FEFF 		bl	__aeabi_f2iz
 501              	.LVL54:
  75:Src/cmd_fun.c ****       TIM2->CCR1=Caculate_Cnt(&htim2,64,(int)args[1]);
 502              		.loc 1 75 7 view .LVU109
 503 005e 0228     		cmp	r0, #2
 504 0060 14D0     		beq	.L44
  79:Src/cmd_fun.c ****       TIM3->CCR4=Caculate_Cnt(&htim3,64,(int)args[1]);
 505              		.loc 1 79 7 is_stmt 1 view .LVU110
  79:Src/cmd_fun.c ****       TIM3->CCR4=Caculate_Cnt(&htim3,64,(int)args[1]);
 506              		.loc 1 79 18 is_stmt 0 view .LVU111
 507 0062 6068     		ldr	r0, [r4, #4]	@ float
 508 0064 FFF7FEFF 		bl	__aeabi_f2iz
 509              	.LVL55:
 510 0068 0246     		mov	r2, r0
 511 006a 244E     		ldr	r6, .L46+4
 512 006c 4021     		movs	r1, #64
 513 006e 3046     		mov	r0, r6
ARM GAS  C:\Users\ncer\AppData\Local\Temp\ccCNyymx.s 			page 15


 514 0070 FFF7FEFF 		bl	Caculate_Cnt
 515              	.LVL56:
  79:Src/cmd_fun.c ****       TIM3->CCR4=Caculate_Cnt(&htim3,64,(int)args[1]);
 516              		.loc 1 79 17 view .LVU112
 517 0074 224D     		ldr	r5, .L46+8
 518 0076 E863     		str	r0, [r5, #60]
  80:Src/cmd_fun.c ****     }
 519              		.loc 1 80 7 is_stmt 1 view .LVU113
  80:Src/cmd_fun.c ****     }
 520              		.loc 1 80 18 is_stmt 0 view .LVU114
 521 0078 6068     		ldr	r0, [r4, #4]	@ float
 522 007a FFF7FEFF 		bl	__aeabi_f2iz
 523              	.LVL57:
 524 007e 0246     		mov	r2, r0
 525 0080 4021     		movs	r1, #64
 526 0082 3046     		mov	r0, r6
 527 0084 FFF7FEFF 		bl	Caculate_Cnt
 528              	.LVL58:
  80:Src/cmd_fun.c ****     }
 529              		.loc 1 80 17 view .LVU115
 530 0088 2864     		str	r0, [r5, #64]
 531 008a C4E7     		b	.L31
 532              	.L44:
  76:Src/cmd_fun.c ****       TIM2->CCR2=Caculate_Cnt(&htim2,64,(int)args[1]);     
 533              		.loc 1 76 7 is_stmt 1 view .LVU116
  76:Src/cmd_fun.c ****       TIM2->CCR2=Caculate_Cnt(&htim2,64,(int)args[1]);     
 534              		.loc 1 76 18 is_stmt 0 view .LVU117
 535 008c 6068     		ldr	r0, [r4, #4]	@ float
 536 008e FFF7FEFF 		bl	__aeabi_f2iz
 537              	.LVL59:
 538 0092 0246     		mov	r2, r0
 539 0094 1C4E     		ldr	r6, .L46+16
 540 0096 4021     		movs	r1, #64
 541 0098 3046     		mov	r0, r6
 542 009a FFF7FEFF 		bl	Caculate_Cnt
 543              	.LVL60:
  76:Src/cmd_fun.c ****       TIM2->CCR2=Caculate_Cnt(&htim2,64,(int)args[1]);     
 544              		.loc 1 76 17 view .LVU118
 545 009e 4FF08045 		mov	r5, #1073741824
 546 00a2 6863     		str	r0, [r5, #52]
  77:Src/cmd_fun.c ****     }else{
 547              		.loc 1 77 7 is_stmt 1 view .LVU119
  77:Src/cmd_fun.c ****     }else{
 548              		.loc 1 77 18 is_stmt 0 view .LVU120
 549 00a4 6068     		ldr	r0, [r4, #4]	@ float
 550 00a6 FFF7FEFF 		bl	__aeabi_f2iz
 551              	.LVL61:
 552 00aa 0246     		mov	r2, r0
 553 00ac 4021     		movs	r1, #64
 554 00ae 3046     		mov	r0, r6
 555 00b0 FFF7FEFF 		bl	Caculate_Cnt
 556              	.LVL62:
  77:Src/cmd_fun.c ****     }else{
 557              		.loc 1 77 17 view .LVU121
 558 00b4 A863     		str	r0, [r5, #56]
 559 00b6 AEE7     		b	.L31
 560              	.LVL63:
ARM GAS  C:\Users\ncer\AppData\Local\Temp\ccCNyymx.s 			page 16


 561              	.L43:
 562              	.LBB2:
  86:Src/cmd_fun.c ****     int32_t cnt=0;
 563              		.loc 1 86 5 is_stmt 1 view .LVU122
  87:Src/cmd_fun.c ****     if((int)args[0]==2){
 564              		.loc 1 87 5 view .LVU123
  88:Src/cmd_fun.c ****       ptr=&(TIM2->CCR1);
 565              		.loc 1 88 5 view .LVU124
  88:Src/cmd_fun.c ****       ptr=&(TIM2->CCR1);
 566              		.loc 1 88 8 is_stmt 0 view .LVU125
 567 00b8 1068     		ldr	r0, [r2]	@ float
 568              	.LVL64:
  88:Src/cmd_fun.c ****       ptr=&(TIM2->CCR1);
 569              		.loc 1 88 8 view .LVU126
 570 00ba FFF7FEFF 		bl	__aeabi_f2iz
 571              	.LVL65:
  88:Src/cmd_fun.c ****       ptr=&(TIM2->CCR1);
 572              		.loc 1 88 7 view .LVU127
 573 00be 0228     		cmp	r0, #2
 574 00c0 0FD0     		beq	.L45
  92:Src/cmd_fun.c ****       cnt=Caculate_Cnt(&htim3,64,(int)args[2]); 
 575              		.loc 1 92 7 is_stmt 1 view .LVU128
 576              	.LVL66:
  93:Src/cmd_fun.c ****     }
 577              		.loc 1 93 7 view .LVU129
  93:Src/cmd_fun.c ****     }
 578              		.loc 1 93 11 is_stmt 0 view .LVU130
 579 00c2 A068     		ldr	r0, [r4, #8]	@ float
 580 00c4 FFF7FEFF 		bl	__aeabi_f2iz
 581              	.LVL67:
 582 00c8 0246     		mov	r2, r0
 583 00ca 4021     		movs	r1, #64
 584 00cc 0B48     		ldr	r0, .L46+4
 585 00ce FFF7FEFF 		bl	Caculate_Cnt
 586              	.LVL68:
 587 00d2 0546     		mov	r5, r0
 588              	.LVL69:
  92:Src/cmd_fun.c ****       cnt=Caculate_Cnt(&htim3,64,(int)args[2]); 
 589              		.loc 1 92 10 view .LVU131
 590 00d4 0D4E     		ldr	r6, .L46+20
 591              	.LVL70:
 592              	.L38:
  95:Src/cmd_fun.c ****     *ptr=cnt;
 593              		.loc 1 95 5 is_stmt 1 view .LVU132
  95:Src/cmd_fun.c ****     *ptr=cnt;
 594              		.loc 1 95 10 is_stmt 0 view .LVU133
 595 00d6 6068     		ldr	r0, [r4, #4]	@ float
 596              	.LVL71:
  95:Src/cmd_fun.c ****     *ptr=cnt;
 597              		.loc 1 95 10 view .LVU134
 598 00d8 FFF7FEFF 		bl	__aeabi_f2iz
 599              	.LVL72:
  96:Src/cmd_fun.c ****   }
 600              		.loc 1 96 5 is_stmt 1 view .LVU135
  96:Src/cmd_fun.c ****   }
 601              		.loc 1 96 9 is_stmt 0 view .LVU136
 602 00dc 46F82050 		str	r5, [r6, r0, lsl #2]
ARM GAS  C:\Users\ncer\AppData\Local\Temp\ccCNyymx.s 			page 17


 603 00e0 99E7     		b	.L31
 604              	.LVL73:
 605              	.L45:
  89:Src/cmd_fun.c ****       cnt=Caculate_Cnt(&htim2,64,(int)args[2]); 
 606              		.loc 1 89 7 is_stmt 1 view .LVU137
  90:Src/cmd_fun.c ****     }else{
 607              		.loc 1 90 7 view .LVU138
  90:Src/cmd_fun.c ****     }else{
 608              		.loc 1 90 11 is_stmt 0 view .LVU139
 609 00e2 A068     		ldr	r0, [r4, #8]	@ float
 610 00e4 FFF7FEFF 		bl	__aeabi_f2iz
 611              	.LVL74:
 612 00e8 0246     		mov	r2, r0
 613 00ea 4021     		movs	r1, #64
 614 00ec 0648     		ldr	r0, .L46+16
 615 00ee FFF7FEFF 		bl	Caculate_Cnt
 616              	.LVL75:
 617 00f2 0546     		mov	r5, r0
 618              	.LVL76:
  89:Src/cmd_fun.c ****       cnt=Caculate_Cnt(&htim2,64,(int)args[2]); 
 619              		.loc 1 89 10 view .LVU140
 620 00f4 064E     		ldr	r6, .L46+24
 621 00f6 EEE7     		b	.L38
 622              	.L47:
 623              		.align	2
 624              	.L46:
 625 00f8 00000000 		.word	.LC15
 626 00fc 00000000 		.word	htim3
 627 0100 00040040 		.word	1073742848
 628 0104 10000000 		.word	.LC16
 629 0108 00000000 		.word	htim2
 630 010c 34040040 		.word	1073742900
 631 0110 34000040 		.word	1073741876
 632              	.LBE2:
 633              		.cfi_endproc
 634              	.LFE70:
 636              		.section	.text.servor_test,"ax",%progbits
 637              		.align	1
 638              		.global	servor_test
 639              		.syntax unified
 640              		.thumb
 641              		.thumb_func
 642              		.fpu softvfp
 644              	servor_test:
 645              	.LVL77:
 646              	.LFB71:
 102:Src/cmd_fun.c ****   if(arg_num!=0x0001&&arg_num!=0x0101){
 647              		.loc 1 102 53 is_stmt 1 view -0
 648              		.cfi_startproc
 649              		@ args = 0, pretend = 0, frame = 0
 650              		@ frame_needed = 0, uses_anonymous_args = 0
 102:Src/cmd_fun.c ****   if(arg_num!=0x0001&&arg_num!=0x0101){
 651              		.loc 1 102 53 is_stmt 0 view .LVU142
 652 0000 10B5     		push	{r4, lr}
 653              	.LCFI6:
 654              		.cfi_def_cfa_offset 8
 655              		.cfi_offset 4, -8
ARM GAS  C:\Users\ncer\AppData\Local\Temp\ccCNyymx.s 			page 18


 656              		.cfi_offset 14, -4
 657 0002 1446     		mov	r4, r2
 103:Src/cmd_fun.c ****     uprintf("error arg_num!\r\n");
 658              		.loc 1 103 3 is_stmt 1 view .LVU143
 103:Src/cmd_fun.c ****     uprintf("error arg_num!\r\n");
 659              		.loc 1 103 5 is_stmt 0 view .LVU144
 660 0004 0128     		cmp	r0, #1
 661 0006 03D0     		beq	.L49
 103:Src/cmd_fun.c ****     uprintf("error arg_num!\r\n");
 662              		.loc 1 103 21 discriminator 1 view .LVU145
 663 0008 40F20113 		movw	r3, #257
 664 000c 9842     		cmp	r0, r3
 665 000e 02D1     		bne	.L52
 666              	.L49:
 107:Src/cmd_fun.c ****     Set_Servor(L_Servor,args[0]);
 667              		.loc 1 107 3 is_stmt 1 view .LVU146
 107:Src/cmd_fun.c ****     Set_Servor(L_Servor,args[0]);
 668              		.loc 1 107 5 is_stmt 0 view .LVU147
 669 0010 0128     		cmp	r0, #1
 670 0012 04D0     		beq	.L53
 671              	.LVL78:
 672              	.L48:
 111:Src/cmd_fun.c **** 
 673              		.loc 1 111 1 view .LVU148
 674 0014 10BD     		pop	{r4, pc}
 675              	.LVL79:
 676              	.L52:
 104:Src/cmd_fun.c ****     return ;
 677              		.loc 1 104 5 is_stmt 1 view .LVU149
 678 0016 0648     		ldr	r0, .L54
 679              	.LVL80:
 104:Src/cmd_fun.c ****     return ;
 680              		.loc 1 104 5 is_stmt 0 view .LVU150
 681 0018 FFF7FEFF 		bl	uprintf
 682              	.LVL81:
 105:Src/cmd_fun.c ****   }
 683              		.loc 1 105 5 is_stmt 1 view .LVU151
 684 001c FAE7     		b	.L48
 685              	.LVL82:
 686              	.L53:
 108:Src/cmd_fun.c ****     Set_Servor(R_Servor,args[0]);
 687              		.loc 1 108 5 view .LVU152
 688 001e 2168     		ldr	r1, [r4]	@ float
 689              	.LVL83:
 108:Src/cmd_fun.c ****     Set_Servor(R_Servor,args[0]);
 690              		.loc 1 108 5 is_stmt 0 view .LVU153
 691 0020 0020     		movs	r0, #0
 692              	.LVL84:
 108:Src/cmd_fun.c ****     Set_Servor(R_Servor,args[0]);
 693              		.loc 1 108 5 view .LVU154
 694 0022 FFF7FEFF 		bl	Set_Servor
 695              	.LVL85:
 109:Src/cmd_fun.c ****   }
 696              		.loc 1 109 5 is_stmt 1 view .LVU155
 697 0026 2168     		ldr	r1, [r4]	@ float
 698 0028 0120     		movs	r0, #1
 699 002a FFF7FEFF 		bl	Set_Servor
ARM GAS  C:\Users\ncer\AppData\Local\Temp\ccCNyymx.s 			page 19


 700              	.LVL86:
 701 002e F1E7     		b	.L48
 702              	.L55:
 703              		.align	2
 704              	.L54:
 705 0030 00000000 		.word	.LC4
 706              		.cfi_endproc
 707              	.LFE71:
 709              		.section	.text.esc_test,"ax",%progbits
 710              		.align	1
 711              		.global	esc_test
 712              		.syntax unified
 713              		.thumb
 714              		.thumb_func
 715              		.fpu softvfp
 717              	esc_test:
 718              	.LVL87:
 719              	.LFB72:
 113:Src/cmd_fun.c ****   if(arg_num!=0x0001&&arg_num!=0x0101){
 720              		.loc 1 113 50 view -0
 721              		.cfi_startproc
 722              		@ args = 0, pretend = 0, frame = 0
 723              		@ frame_needed = 0, uses_anonymous_args = 0
 113:Src/cmd_fun.c ****   if(arg_num!=0x0001&&arg_num!=0x0101){
 724              		.loc 1 113 50 is_stmt 0 view .LVU157
 725 0000 10B5     		push	{r4, lr}
 726              	.LCFI7:
 727              		.cfi_def_cfa_offset 8
 728              		.cfi_offset 4, -8
 729              		.cfi_offset 14, -4
 730 0002 1446     		mov	r4, r2
 114:Src/cmd_fun.c ****     uprintf("error arg_num!\r\n");
 731              		.loc 1 114 3 is_stmt 1 view .LVU158
 114:Src/cmd_fun.c ****     uprintf("error arg_num!\r\n");
 732              		.loc 1 114 5 is_stmt 0 view .LVU159
 733 0004 0128     		cmp	r0, #1
 734 0006 03D0     		beq	.L57
 114:Src/cmd_fun.c ****     uprintf("error arg_num!\r\n");
 735              		.loc 1 114 21 discriminator 1 view .LVU160
 736 0008 40F20113 		movw	r3, #257
 737 000c 9842     		cmp	r0, r3
 738 000e 0AD1     		bne	.L62
 739              	.L57:
 118:Src/cmd_fun.c ****     Set_ESC(L_ESC,args[0]);
 740              		.loc 1 118 3 is_stmt 1 view .LVU161
 118:Src/cmd_fun.c ****     Set_ESC(L_ESC,args[0]);
 741              		.loc 1 118 5 is_stmt 0 view .LVU162
 742 0010 0128     		cmp	r0, #1
 743 0012 0CD0     		beq	.L63
 122:Src/cmd_fun.c ****       Set_ESC(L_ESC,args[0]);
 744              		.loc 1 122 5 is_stmt 1 view .LVU163
 122:Src/cmd_fun.c ****       Set_ESC(L_ESC,args[0]);
 745              		.loc 1 122 9 is_stmt 0 view .LVU164
 746 0014 0B68     		ldr	r3, [r1]
 122:Src/cmd_fun.c ****       Set_ESC(L_ESC,args[0]);
 747              		.loc 1 122 12 view .LVU165
 748 0016 1B78     		ldrb	r3, [r3]	@ zero_extendqisi2
ARM GAS  C:\Users\ncer\AppData\Local\Temp\ccCNyymx.s 			page 20


 122:Src/cmd_fun.c ****       Set_ESC(L_ESC,args[0]);
 749              		.loc 1 122 7 view .LVU166
 750 0018 6C2B     		cmp	r3, #108
 751 001a 11D0     		beq	.L64
 125:Src/cmd_fun.c ****     }
 752              		.loc 1 125 7 is_stmt 1 view .LVU167
 753 001c 2168     		ldr	r1, [r4]	@ float
 754              	.LVL88:
 125:Src/cmd_fun.c ****     }
 755              		.loc 1 125 7 is_stmt 0 view .LVU168
 756 001e 0120     		movs	r0, #1
 757              	.LVL89:
 125:Src/cmd_fun.c ****     }
 758              		.loc 1 125 7 view .LVU169
 759 0020 FFF7FEFF 		bl	Set_ESC
 760              	.LVL90:
 761              	.L56:
 128:Src/cmd_fun.c **** 
 762              		.loc 1 128 1 view .LVU170
 763 0024 10BD     		pop	{r4, pc}
 764              	.LVL91:
 765              	.L62:
 115:Src/cmd_fun.c ****     return ;
 766              		.loc 1 115 5 is_stmt 1 view .LVU171
 767 0026 0948     		ldr	r0, .L65
 768              	.LVL92:
 115:Src/cmd_fun.c ****     return ;
 769              		.loc 1 115 5 is_stmt 0 view .LVU172
 770 0028 FFF7FEFF 		bl	uprintf
 771              	.LVL93:
 116:Src/cmd_fun.c ****   }
 772              		.loc 1 116 5 is_stmt 1 view .LVU173
 773 002c FAE7     		b	.L56
 774              	.LVL94:
 775              	.L63:
 119:Src/cmd_fun.c ****     Set_ESC(R_ESC,args[0]);
 776              		.loc 1 119 5 view .LVU174
 777 002e 2168     		ldr	r1, [r4]	@ float
 778              	.LVL95:
 119:Src/cmd_fun.c ****     Set_ESC(R_ESC,args[0]);
 779              		.loc 1 119 5 is_stmt 0 view .LVU175
 780 0030 0020     		movs	r0, #0
 781              	.LVL96:
 119:Src/cmd_fun.c ****     Set_ESC(R_ESC,args[0]);
 782              		.loc 1 119 5 view .LVU176
 783 0032 FFF7FEFF 		bl	Set_ESC
 784              	.LVL97:
 120:Src/cmd_fun.c ****   }else{
 785              		.loc 1 120 5 is_stmt 1 view .LVU177
 786 0036 2168     		ldr	r1, [r4]	@ float
 787 0038 0120     		movs	r0, #1
 788 003a FFF7FEFF 		bl	Set_ESC
 789              	.LVL98:
 790 003e F1E7     		b	.L56
 791              	.LVL99:
 792              	.L64:
 123:Src/cmd_fun.c ****     }else{
ARM GAS  C:\Users\ncer\AppData\Local\Temp\ccCNyymx.s 			page 21


 793              		.loc 1 123 7 view .LVU178
 794 0040 2168     		ldr	r1, [r4]	@ float
 795              	.LVL100:
 123:Src/cmd_fun.c ****     }else{
 796              		.loc 1 123 7 is_stmt 0 view .LVU179
 797 0042 0020     		movs	r0, #0
 798              	.LVL101:
 123:Src/cmd_fun.c ****     }else{
 799              		.loc 1 123 7 view .LVU180
 800 0044 FFF7FEFF 		bl	Set_ESC
 801              	.LVL102:
 123:Src/cmd_fun.c ****     }else{
 802              		.loc 1 123 7 view .LVU181
 803 0048 ECE7     		b	.L56
 804              	.L66:
 805 004a 00BF     		.align	2
 806              	.L65:
 807 004c 00000000 		.word	.LC4
 808              		.cfi_endproc
 809              	.LFE72:
 811              		.section	.rodata.set_val.str1.4,"aMS",%progbits,1
 812              		.align	2
 813              	.LC17:
 814 0000 753800   		.ascii	"u8\000"
 815              		.global	__aeabi_f2uiz
 816 0003 00       		.align	2
 817              	.LC18:
 818 0004 6F6B2073 		.ascii	"ok set %s = %d\015\012\000"
 818      65742025 
 818      73203D20 
 818      25640D0A 
 818      00
 819 0015 000000   		.align	2
 820              	.LC19:
 821 0018 696E7400 		.ascii	"int\000"
 822              		.align	2
 823              	.LC20:
 824 001c 6600     		.ascii	"f\000"
 825 001e 0000     		.align	2
 826              	.LC21:
 827 0020 6F6B2073 		.ascii	"ok set %s = %f\015\012\000"
 827      65742025 
 827      73203D20 
 827      25660D0A 
 827      00
 828              		.section	.text.set_val,"ax",%progbits
 829              		.align	1
 830              		.global	set_val
 831              		.syntax unified
 832              		.thumb
 833              		.thumb_func
 834              		.fpu softvfp
 836              	set_val:
 837              	.LVL103:
 838              	.LFB69:
  28:Src/cmd_fun.c ****   void * edit_value;
 839              		.loc 1 28 49 is_stmt 1 view -0
ARM GAS  C:\Users\ncer\AppData\Local\Temp\ccCNyymx.s 			page 22


 840              		.cfi_startproc
 841              		@ args = 0, pretend = 0, frame = 0
 842              		@ frame_needed = 0, uses_anonymous_args = 0
  28:Src/cmd_fun.c ****   void * edit_value;
 843              		.loc 1 28 49 is_stmt 0 view .LVU183
 844 0000 F8B5     		push	{r3, r4, r5, r6, r7, lr}
 845              	.LCFI8:
 846              		.cfi_def_cfa_offset 24
 847              		.cfi_offset 3, -24
 848              		.cfi_offset 4, -20
 849              		.cfi_offset 5, -16
 850              		.cfi_offset 6, -12
 851              		.cfi_offset 7, -8
 852              		.cfi_offset 14, -4
  29:Src/cmd_fun.c ****   if(arg_num!=0x0201){
 853              		.loc 1 29 3 is_stmt 1 view .LVU184
  30:Src/cmd_fun.c ****     uprintf("error arg_num!\r\n");
 854              		.loc 1 30 3 view .LVU185
  30:Src/cmd_fun.c ****     uprintf("error arg_num!\r\n");
 855              		.loc 1 30 5 is_stmt 0 view .LVU186
 856 0002 40F20123 		movw	r3, #513
 857 0006 9842     		cmp	r0, r3
 858 0008 0DD1     		bne	.L77
 859 000a 0D46     		mov	r5, r1
 860 000c 1746     		mov	r7, r2
 861              	.LBB3:
  35:Src/cmd_fun.c ****     if(compare_string(Var_List[i].var_name,s[0])){
 862              		.loc 1 35 11 view .LVU187
 863 000e 0024     		movs	r4, #0
 864              	.LVL104:
 865              	.L68:
  35:Src/cmd_fun.c ****     if(compare_string(Var_List[i].var_name,s[0])){
 866              		.loc 1 35 15 is_stmt 1 discriminator 1 view .LVU188
  35:Src/cmd_fun.c ****     if(compare_string(Var_List[i].var_name,s[0])){
 867              		.loc 1 35 3 is_stmt 0 discriminator 1 view .LVU189
 868 0010 092C     		cmp	r4, #9
 869 0012 10D8     		bhi	.L71
  36:Src/cmd_fun.c ****       edit_value=Var_List[i].value_ptr;
 870              		.loc 1 36 5 is_stmt 1 view .LVU190
  36:Src/cmd_fun.c ****       edit_value=Var_List[i].value_ptr;
 871              		.loc 1 36 8 is_stmt 0 view .LVU191
 872 0014 2968     		ldr	r1, [r5]
 873 0016 1F4B     		ldr	r3, .L79
 874 0018 53F83400 		ldr	r0, [r3, r4, lsl #3]
 875 001c FFF7FEFF 		bl	compare_string
 876              	.LVL105:
  36:Src/cmd_fun.c ****       edit_value=Var_List[i].value_ptr;
 877              		.loc 1 36 7 view .LVU192
 878 0020 28B9     		cbnz	r0, .L78
  35:Src/cmd_fun.c ****     if(compare_string(Var_List[i].var_name,s[0])){
 879              		.loc 1 35 58 is_stmt 1 discriminator 2 view .LVU193
 880 0022 0134     		adds	r4, r4, #1
 881              	.LVL106:
  35:Src/cmd_fun.c ****     if(compare_string(Var_List[i].var_name,s[0])){
 882              		.loc 1 35 58 is_stmt 0 discriminator 2 view .LVU194
 883 0024 F4E7     		b	.L68
 884              	.LVL107:
ARM GAS  C:\Users\ncer\AppData\Local\Temp\ccCNyymx.s 			page 23


 885              	.L77:
  35:Src/cmd_fun.c ****     if(compare_string(Var_List[i].var_name,s[0])){
 886              		.loc 1 35 58 discriminator 2 view .LVU195
 887              	.LBE3:
  31:Src/cmd_fun.c ****     return ;
 888              		.loc 1 31 5 is_stmt 1 view .LVU196
 889 0026 1C48     		ldr	r0, .L79+4
 890              	.LVL108:
  31:Src/cmd_fun.c ****     return ;
 891              		.loc 1 31 5 is_stmt 0 view .LVU197
 892 0028 FFF7FEFF 		bl	uprintf
 893              	.LVL109:
  32:Src/cmd_fun.c ****   }
 894              		.loc 1 32 5 is_stmt 1 view .LVU198
 895 002c 11E0     		b	.L67
 896              	.LVL110:
 897              	.L78:
 898              	.LBB4:
  37:Src/cmd_fun.c ****       break;
 899              		.loc 1 37 7 view .LVU199
  37:Src/cmd_fun.c ****       break;
 900              		.loc 1 37 17 is_stmt 0 view .LVU200
 901 002e 194B     		ldr	r3, .L79
 902 0030 03EBC404 		add	r4, r3, r4, lsl #3
 903              	.LVL111:
  37:Src/cmd_fun.c ****       break;
 904              		.loc 1 37 17 view .LVU201
 905 0034 6668     		ldr	r6, [r4, #4]
 906              	.LVL112:
  38:Src/cmd_fun.c ****     }
 907              		.loc 1 38 7 is_stmt 1 view .LVU202
 908              	.L71:
  38:Src/cmd_fun.c ****     }
 909              		.loc 1 38 7 is_stmt 0 view .LVU203
 910              	.LBE4:
  42:Src/cmd_fun.c ****     *(uint8_t *)edit_value=(uint8_t)args[0];
 911              		.loc 1 42 3 is_stmt 1 view .LVU204
  42:Src/cmd_fun.c ****     *(uint8_t *)edit_value=(uint8_t)args[0];
 912              		.loc 1 42 6 is_stmt 0 view .LVU205
 913 0036 1949     		ldr	r1, .L79+8
 914 0038 6868     		ldr	r0, [r5, #4]
 915 003a FFF7FEFF 		bl	compare_string
 916              	.LVL113:
  42:Src/cmd_fun.c ****     *(uint8_t *)edit_value=(uint8_t)args[0];
 917              		.loc 1 42 5 view .LVU206
 918 003e 48B1     		cbz	r0, .L73
  43:Src/cmd_fun.c ****     uprintf("ok set %s = %d\r\n",s[0],*(uint8_t *)edit_value);  
 919              		.loc 1 43 5 is_stmt 1 view .LVU207
  43:Src/cmd_fun.c ****     uprintf("ok set %s = %d\r\n",s[0],*(uint8_t *)edit_value);  
 920              		.loc 1 43 28 is_stmt 0 view .LVU208
 921 0040 3868     		ldr	r0, [r7]	@ float
 922 0042 FFF7FEFF 		bl	__aeabi_f2uiz
 923              	.LVL114:
 924 0046 C2B2     		uxtb	r2, r0
  43:Src/cmd_fun.c ****     uprintf("ok set %s = %d\r\n",s[0],*(uint8_t *)edit_value);  
 925              		.loc 1 43 27 view .LVU209
 926 0048 3270     		strb	r2, [r6]
ARM GAS  C:\Users\ncer\AppData\Local\Temp\ccCNyymx.s 			page 24


  44:Src/cmd_fun.c ****   }else if(compare_string(s[1],"int")){
 927              		.loc 1 44 5 is_stmt 1 view .LVU210
 928 004a 2968     		ldr	r1, [r5]
 929 004c 1448     		ldr	r0, .L79+12
 930 004e FFF7FEFF 		bl	uprintf
 931              	.LVL115:
 932              	.L67:
  52:Src/cmd_fun.c **** 
 933              		.loc 1 52 1 is_stmt 0 view .LVU211
 934 0052 F8BD     		pop	{r3, r4, r5, r6, r7, pc}
 935              	.LVL116:
 936              	.L73:
  45:Src/cmd_fun.c ****     *(int16_t *)edit_value=(int16_t)args[0];
 937              		.loc 1 45 9 is_stmt 1 view .LVU212
  45:Src/cmd_fun.c ****     *(int16_t *)edit_value=(int16_t)args[0];
 938              		.loc 1 45 12 is_stmt 0 view .LVU213
 939 0054 1349     		ldr	r1, .L79+16
 940 0056 6868     		ldr	r0, [r5, #4]
 941 0058 FFF7FEFF 		bl	compare_string
 942              	.LVL117:
  45:Src/cmd_fun.c ****     *(int16_t *)edit_value=(int16_t)args[0];
 943              		.loc 1 45 11 view .LVU214
 944 005c 48B1     		cbz	r0, .L74
  46:Src/cmd_fun.c ****     uprintf("ok set %s = %d\r\n",s[0],*(int16_t *)edit_value);
 945              		.loc 1 46 5 is_stmt 1 view .LVU215
  46:Src/cmd_fun.c ****     uprintf("ok set %s = %d\r\n",s[0],*(int16_t *)edit_value);
 946              		.loc 1 46 28 is_stmt 0 view .LVU216
 947 005e 3868     		ldr	r0, [r7]	@ float
 948 0060 FFF7FEFF 		bl	__aeabi_f2iz
 949              	.LVL118:
 950 0064 02B2     		sxth	r2, r0
  46:Src/cmd_fun.c ****     uprintf("ok set %s = %d\r\n",s[0],*(int16_t *)edit_value);
 951              		.loc 1 46 27 view .LVU217
 952 0066 3280     		strh	r2, [r6]	@ movhi
  47:Src/cmd_fun.c ****   }else if(compare_string(s[1],"f")){
 953              		.loc 1 47 5 is_stmt 1 view .LVU218
 954 0068 2968     		ldr	r1, [r5]
 955 006a 0D48     		ldr	r0, .L79+12
 956 006c FFF7FEFF 		bl	uprintf
 957              	.LVL119:
 958 0070 EFE7     		b	.L67
 959              	.L74:
  48:Src/cmd_fun.c ****     *(float *)edit_value=args[0];
 960              		.loc 1 48 9 view .LVU219
  48:Src/cmd_fun.c ****     *(float *)edit_value=args[0];
 961              		.loc 1 48 12 is_stmt 0 view .LVU220
 962 0072 0D49     		ldr	r1, .L79+20
 963 0074 6868     		ldr	r0, [r5, #4]
 964 0076 FFF7FEFF 		bl	compare_string
 965              	.LVL120:
  48:Src/cmd_fun.c ****     *(float *)edit_value=args[0];
 966              		.loc 1 48 11 view .LVU221
 967 007a 0028     		cmp	r0, #0
 968 007c E9D0     		beq	.L67
  49:Src/cmd_fun.c ****     uprintf("ok set %s = %f\r\n",s[0],*(float *)edit_value);
 969              		.loc 1 49 5 is_stmt 1 view .LVU222
  49:Src/cmd_fun.c ****     uprintf("ok set %s = %f\r\n",s[0],*(float *)edit_value);
ARM GAS  C:\Users\ncer\AppData\Local\Temp\ccCNyymx.s 			page 25


 970              		.loc 1 49 30 is_stmt 0 view .LVU223
 971 007e 3868     		ldr	r0, [r7]	@ float
  49:Src/cmd_fun.c ****     uprintf("ok set %s = %f\r\n",s[0],*(float *)edit_value);
 972              		.loc 1 49 25 view .LVU224
 973 0080 3060     		str	r0, [r6]	@ float
  50:Src/cmd_fun.c ****   }
 974              		.loc 1 50 5 is_stmt 1 view .LVU225
 975 0082 FFF7FEFF 		bl	__aeabi_f2d
 976              	.LVL121:
 977 0086 0246     		mov	r2, r0
 978 0088 0B46     		mov	r3, r1
 979 008a 2968     		ldr	r1, [r5]
 980 008c 0748     		ldr	r0, .L79+24
 981 008e FFF7FEFF 		bl	uprintf
 982              	.LVL122:
 983 0092 DEE7     		b	.L67
 984              	.L80:
 985              		.align	2
 986              	.L79:
 987 0094 00000000 		.word	.LANCHOR0
 988 0098 00000000 		.word	.LC4
 989 009c 00000000 		.word	.LC17
 990 00a0 04000000 		.word	.LC18
 991 00a4 18000000 		.word	.LC19
 992 00a8 1C000000 		.word	.LC20
 993 00ac 20000000 		.word	.LC21
 994              		.cfi_endproc
 995              	.LFE69:
 997              		.section	.rodata.command_init.str1.4,"aMS",%progbits,1
 998              		.align	2
 999              	.LC22:
 1000 0000 74657374 		.ascii	"test\000"
 1000      00
 1001 0005 000000   		.align	2
 1002              	.LC23:
 1003 0008 74696D5F 		.ascii	"tim_test\000"
 1003      74657374 
 1003      00
 1004 0011 000000   		.align	2
 1005              	.LC24:
 1006 0014 7365725F 		.ascii	"ser_test\000"
 1006      74657374 
 1006      00
 1007 001d 000000   		.align	2
 1008              	.LC25:
 1009 0020 6573635F 		.ascii	"esc_test\000"
 1009      74657374 
 1009      00
 1010 0029 000000   		.align	2
 1011              	.LC26:
 1012 002c 7365745F 		.ascii	"set_pid\000"
 1012      70696400 
 1013              		.section	.text.command_init,"ax",%progbits
 1014              		.align	1
 1015              		.global	command_init
 1016              		.syntax unified
 1017              		.thumb
ARM GAS  C:\Users\ncer\AppData\Local\Temp\ccCNyymx.s 			page 26


 1018              		.thumb_func
 1019              		.fpu softvfp
 1021              	command_init:
 1022              	.LFB74:
 173:Src/cmd_fun.c **** /*
 174:Src/cmd_fun.c **** 将要增加的命令与函数写在这里
 175:Src/cmd_fun.c **** */
 176:Src/cmd_fun.c **** void command_init(void){
 1023              		.loc 1 176 24 view -0
 1024              		.cfi_startproc
 1025              		@ args = 0, pretend = 0, frame = 0
 1026              		@ frame_needed = 0, uses_anonymous_args = 0
 1027 0000 08B5     		push	{r3, lr}
 1028              	.LCFI9:
 1029              		.cfi_def_cfa_offset 8
 1030              		.cfi_offset 3, -8
 1031              		.cfi_offset 14, -4
 177:Src/cmd_fun.c ****   add_cmd("test",test);  
 1032              		.loc 1 177 3 view .LVU227
 1033 0002 0A49     		ldr	r1, .L83
 1034 0004 0A48     		ldr	r0, .L83+4
 1035 0006 FFF7FEFF 		bl	add_cmd
 1036              	.LVL123:
 178:Src/cmd_fun.c ****   add_cmd("tim_test",TIM_test);
 1037              		.loc 1 178 3 view .LVU228
 1038 000a 0A49     		ldr	r1, .L83+8
 1039 000c 0A48     		ldr	r0, .L83+12
 1040 000e FFF7FEFF 		bl	add_cmd
 1041              	.LVL124:
 179:Src/cmd_fun.c ****   add_cmd("ser_test",servor_test);
 1042              		.loc 1 179 3 view .LVU229
 1043 0012 0A49     		ldr	r1, .L83+16
 1044 0014 0A48     		ldr	r0, .L83+20
 1045 0016 FFF7FEFF 		bl	add_cmd
 1046              	.LVL125:
 180:Src/cmd_fun.c ****   add_cmd("esc_test",esc_test);
 1047              		.loc 1 180 3 view .LVU230
 1048 001a 0A49     		ldr	r1, .L83+24
 1049 001c 0A48     		ldr	r0, .L83+28
 1050 001e FFF7FEFF 		bl	add_cmd
 1051              	.LVL126:
 181:Src/cmd_fun.c ****   add_cmd("set_pid",set_PID);
 1052              		.loc 1 181 3 view .LVU231
 1053 0022 0A49     		ldr	r1, .L83+32
 1054 0024 0A48     		ldr	r0, .L83+36
 1055 0026 FFF7FEFF 		bl	add_cmd
 1056              	.LVL127:
 182:Src/cmd_fun.c **** }
 1057              		.loc 1 182 1 is_stmt 0 view .LVU232
 1058 002a 08BD     		pop	{r3, pc}
 1059              	.L84:
 1060              		.align	2
 1061              	.L83:
 1062 002c 00000000 		.word	test
 1063 0030 00000000 		.word	.LC22
 1064 0034 00000000 		.word	TIM_test
 1065 0038 08000000 		.word	.LC23
ARM GAS  C:\Users\ncer\AppData\Local\Temp\ccCNyymx.s 			page 27


 1066 003c 00000000 		.word	servor_test
 1067 0040 14000000 		.word	.LC24
 1068 0044 00000000 		.word	esc_test
 1069 0048 20000000 		.word	.LC25
 1070 004c 00000000 		.word	set_PID
 1071 0050 2C000000 		.word	.LC26
 1072              		.cfi_endproc
 1073              	.LFE74:
 1075              		.comm	Theta_Angle_Speed_PID,32,4
 1076              		.comm	Roll_Angle_Speed_PID,32,4
 1077              		.comm	Pitch_Angle_Speed_PID,32,4
 1078              		.global	Var_List
 1079              		.section	.bss.Var_List,"aw",%nobits
 1080              		.align	2
 1081              		.set	.LANCHOR0,. + 0
 1084              	Var_List:
 1085 0000 00000000 		.space	80
 1085      00000000 
 1085      00000000 
 1085      00000000 
 1085      00000000 
 1086              		.text
 1087              	.Letext0:
 1088              		.file 2 "c:\\arm_gcc\\arm-none-eabi\\include\\machine\\_default_types.h"
 1089              		.file 3 "c:\\arm_gcc\\arm-none-eabi\\include\\sys\\_stdint.h"
 1090              		.file 4 "c:\\arm_gcc\\arm-none-eabi\\include\\sys\\lock.h"
 1091              		.file 5 "c:\\arm_gcc\\arm-none-eabi\\include\\sys\\_types.h"
 1092              		.file 6 "c:\\arm_gcc\\lib\\gcc\\arm-none-eabi\\9.2.1\\include\\stddef.h"
 1093              		.file 7 "c:\\arm_gcc\\arm-none-eabi\\include\\sys\\reent.h"
 1094              		.file 8 "c:\\arm_gcc\\arm-none-eabi\\include\\stdlib.h"
 1095              		.file 9 "Drivers/CMSIS/Include/core_cm3.h"
 1096              		.file 10 "Drivers/CMSIS/Device/ST/STM32F1xx/Include/system_stm32f1xx.h"
 1097              		.file 11 "Drivers/CMSIS/Device/ST/STM32F1xx/Include/stm32f103xb.h"
 1098              		.file 12 "Drivers/STM32F1xx_HAL_Driver/Inc/stm32f1xx_hal_def.h"
 1099              		.file 13 "Drivers/STM32F1xx_HAL_Driver/Inc/stm32f1xx_hal_dma.h"
 1100              		.file 14 "Drivers/STM32F1xx_HAL_Driver/Inc/stm32f1xx_hal_tim.h"
 1101              		.file 15 "Drivers/STM32F1xx_HAL_Driver/Inc/stm32f1xx_hal.h"
 1102              		.file 16 "mylib/uart_ext.h"
 1103              		.file 17 "Inc/tim.h"
 1104              		.file 18 "Inc/control.h"
 1105              		.file 19 "mylib/pid.h"
 1106              		.file 20 "mylib/command.h"
ARM GAS  C:\Users\ncer\AppData\Local\Temp\ccCNyymx.s 			page 28


DEFINED SYMBOLS
                            *ABS*:00000000 cmd_fun.c
C:\Users\ncer\AppData\Local\Temp\ccCNyymx.s:16     .rodata.test.str1.4:00000000 $d
C:\Users\ncer\AppData\Local\Temp\ccCNyymx.s:30     .text.test:00000000 $t
C:\Users\ncer\AppData\Local\Temp\ccCNyymx.s:37     .text.test:00000000 test
C:\Users\ncer\AppData\Local\Temp\ccCNyymx.s:123    .text.test:0000004c $d
C:\Users\ncer\AppData\Local\Temp\ccCNyymx.s:131    .rodata.set_PID.str1.4:00000000 $d
C:\Users\ncer\AppData\Local\Temp\ccCNyymx.s:165    .text.set_PID:00000000 $t
C:\Users\ncer\AppData\Local\Temp\ccCNyymx.s:172    .text.set_PID:00000000 set_PID
C:\Users\ncer\AppData\Local\Temp\ccCNyymx.s:369    .text.set_PID:000000b8 $d
                            *COM*:00000020 Roll_Angle_Speed_PID
                            *COM*:00000020 Theta_Angle_Speed_PID
                            *COM*:00000020 Pitch_Angle_Speed_PID
C:\Users\ncer\AppData\Local\Temp\ccCNyymx.s:390    .rodata.TIM_test.str1.4:00000000 $d
C:\Users\ncer\AppData\Local\Temp\ccCNyymx.s:398    .text.TIM_test:00000000 $t
C:\Users\ncer\AppData\Local\Temp\ccCNyymx.s:405    .text.TIM_test:00000000 TIM_test
C:\Users\ncer\AppData\Local\Temp\ccCNyymx.s:625    .text.TIM_test:000000f8 $d
C:\Users\ncer\AppData\Local\Temp\ccCNyymx.s:637    .text.servor_test:00000000 $t
C:\Users\ncer\AppData\Local\Temp\ccCNyymx.s:644    .text.servor_test:00000000 servor_test
C:\Users\ncer\AppData\Local\Temp\ccCNyymx.s:705    .text.servor_test:00000030 $d
C:\Users\ncer\AppData\Local\Temp\ccCNyymx.s:710    .text.esc_test:00000000 $t
C:\Users\ncer\AppData\Local\Temp\ccCNyymx.s:717    .text.esc_test:00000000 esc_test
C:\Users\ncer\AppData\Local\Temp\ccCNyymx.s:807    .text.esc_test:0000004c $d
C:\Users\ncer\AppData\Local\Temp\ccCNyymx.s:812    .rodata.set_val.str1.4:00000000 $d
C:\Users\ncer\AppData\Local\Temp\ccCNyymx.s:829    .text.set_val:00000000 $t
C:\Users\ncer\AppData\Local\Temp\ccCNyymx.s:836    .text.set_val:00000000 set_val
C:\Users\ncer\AppData\Local\Temp\ccCNyymx.s:987    .text.set_val:00000094 $d
C:\Users\ncer\AppData\Local\Temp\ccCNyymx.s:998    .rodata.command_init.str1.4:00000000 $d
C:\Users\ncer\AppData\Local\Temp\ccCNyymx.s:1014   .text.command_init:00000000 $t
C:\Users\ncer\AppData\Local\Temp\ccCNyymx.s:1021   .text.command_init:00000000 command_init
C:\Users\ncer\AppData\Local\Temp\ccCNyymx.s:1062   .text.command_init:0000002c $d
C:\Users\ncer\AppData\Local\Temp\ccCNyymx.s:1084   .bss.Var_List:00000000 Var_List
C:\Users\ncer\AppData\Local\Temp\ccCNyymx.s:1080   .bss.Var_List:00000000 $d

UNDEFINED SYMBOLS
__aeabi_f2d
uprintf
compare_string
Pitch_PID
Theta_PID
Roll_PID
__aeabi_f2iz
Caculate_Cnt
htim3
htim2
Set_Servor
Set_ESC
__aeabi_f2uiz
add_cmd
