ARM GAS  C:\Users\ncer\AppData\Local\Temp\ccuX9Zgh.s 			page 1


   1              		.cpu cortex-m3
   2              		.eabi_attribute 20, 1
   3              		.eabi_attribute 21, 1
   4              		.eabi_attribute 23, 3
   5              		.eabi_attribute 24, 1
   6              		.eabi_attribute 25, 1
   7              		.eabi_attribute 26, 1
   8              		.eabi_attribute 30, 1
   9              		.eabi_attribute 34, 1
  10              		.eabi_attribute 18, 4
  11              		.file	"tim.c"
  12              		.text
  13              	.Ltext0:
  14              		.cfi_sections	.debug_frame
  15              		.section	.text.HAL_TIM_PWM_MspInit,"ax",%progbits
  16              		.align	1
  17              		.global	HAL_TIM_PWM_MspInit
  18              		.arch armv7-m
  19              		.syntax unified
  20              		.thumb
  21              		.thumb_func
  22              		.fpu softvfp
  24              	HAL_TIM_PWM_MspInit:
  25              	.LVL0:
  26              	.LFB68:
  27              		.file 1 "Src/tim.c"
   1:Src/tim.c     **** /**
   2:Src/tim.c     ****   ******************************************************************************
   3:Src/tim.c     ****   * File Name          : TIM.c
   4:Src/tim.c     ****   * Description        : This file provides code for the configuration
   5:Src/tim.c     ****   *                      of the TIM instances.
   6:Src/tim.c     ****   ******************************************************************************
   7:Src/tim.c     ****   * @attention
   8:Src/tim.c     ****   *
   9:Src/tim.c     ****   * <h2><center>&copy; Copyright (c) 2019 STMicroelectronics.
  10:Src/tim.c     ****   * All rights reserved.</center></h2>
  11:Src/tim.c     ****   *
  12:Src/tim.c     ****   * This software component is licensed by ST under BSD 3-Clause license,
  13:Src/tim.c     ****   * the "License"; You may not use this file except in compliance with the
  14:Src/tim.c     ****   * License. You may obtain a copy of the License at:
  15:Src/tim.c     ****   *                        opensource.org/licenses/BSD-3-Clause
  16:Src/tim.c     ****   *
  17:Src/tim.c     ****   ******************************************************************************
  18:Src/tim.c     ****   */
  19:Src/tim.c     **** 
  20:Src/tim.c     **** /* Includes ------------------------------------------------------------------*/
  21:Src/tim.c     **** #include "tim.h"
  22:Src/tim.c     **** 
  23:Src/tim.c     **** /* USER CODE BEGIN 0 */
  24:Src/tim.c     **** 
  25:Src/tim.c     **** /* USER CODE END 0 */
  26:Src/tim.c     **** 
  27:Src/tim.c     **** TIM_HandleTypeDef htim1;
  28:Src/tim.c     **** TIM_HandleTypeDef htim2;
  29:Src/tim.c     **** TIM_HandleTypeDef htim3;
  30:Src/tim.c     **** DMA_HandleTypeDef hdma_tim1_ch4_trig_com;
  31:Src/tim.c     **** 
ARM GAS  C:\Users\ncer\AppData\Local\Temp\ccuX9Zgh.s 			page 2


  32:Src/tim.c     **** /* TIM1 init function */
  33:Src/tim.c     **** void MX_TIM1_Init(void)
  34:Src/tim.c     **** {
  35:Src/tim.c     ****   TIM_MasterConfigTypeDef sMasterConfig = {0};
  36:Src/tim.c     ****   TIM_OC_InitTypeDef sConfigOC = {0};
  37:Src/tim.c     ****   TIM_BreakDeadTimeConfigTypeDef sBreakDeadTimeConfig = {0};
  38:Src/tim.c     **** 
  39:Src/tim.c     ****   htim1.Instance = TIM1;
  40:Src/tim.c     ****   htim1.Init.Prescaler = 0;
  41:Src/tim.c     ****   htim1.Init.CounterMode = TIM_COUNTERMODE_UP;
  42:Src/tim.c     ****   htim1.Init.Period = 0;
  43:Src/tim.c     ****   htim1.Init.ClockDivision = TIM_CLOCKDIVISION_DIV1;
  44:Src/tim.c     ****   htim1.Init.RepetitionCounter = 0;
  45:Src/tim.c     ****   htim1.Init.AutoReloadPreload = TIM_AUTORELOAD_PRELOAD_DISABLE;
  46:Src/tim.c     ****   if (HAL_TIM_PWM_Init(&htim1) != HAL_OK)
  47:Src/tim.c     ****   {
  48:Src/tim.c     ****     Error_Handler();
  49:Src/tim.c     ****   }
  50:Src/tim.c     ****   sMasterConfig.MasterOutputTrigger = TIM_TRGO_RESET;
  51:Src/tim.c     ****   sMasterConfig.MasterSlaveMode = TIM_MASTERSLAVEMODE_DISABLE;
  52:Src/tim.c     ****   if (HAL_TIMEx_MasterConfigSynchronization(&htim1, &sMasterConfig) != HAL_OK)
  53:Src/tim.c     ****   {
  54:Src/tim.c     ****     Error_Handler();
  55:Src/tim.c     ****   }
  56:Src/tim.c     ****   sConfigOC.OCMode = TIM_OCMODE_PWM1;
  57:Src/tim.c     ****   sConfigOC.Pulse = 0;
  58:Src/tim.c     ****   sConfigOC.OCPolarity = TIM_OCPOLARITY_HIGH;
  59:Src/tim.c     ****   sConfigOC.OCFastMode = TIM_OCFAST_DISABLE;
  60:Src/tim.c     ****   sConfigOC.OCIdleState = TIM_OCIDLESTATE_RESET;
  61:Src/tim.c     ****   sConfigOC.OCNIdleState = TIM_OCNIDLESTATE_RESET;
  62:Src/tim.c     ****   if (HAL_TIM_PWM_ConfigChannel(&htim1, &sConfigOC, TIM_CHANNEL_4) != HAL_OK)
  63:Src/tim.c     ****   {
  64:Src/tim.c     ****     Error_Handler();
  65:Src/tim.c     ****   }
  66:Src/tim.c     ****   sBreakDeadTimeConfig.OffStateRunMode = TIM_OSSR_DISABLE;
  67:Src/tim.c     ****   sBreakDeadTimeConfig.OffStateIDLEMode = TIM_OSSI_DISABLE;
  68:Src/tim.c     ****   sBreakDeadTimeConfig.LockLevel = TIM_LOCKLEVEL_OFF;
  69:Src/tim.c     ****   sBreakDeadTimeConfig.DeadTime = 0;
  70:Src/tim.c     ****   sBreakDeadTimeConfig.BreakState = TIM_BREAK_DISABLE;
  71:Src/tim.c     ****   sBreakDeadTimeConfig.BreakPolarity = TIM_BREAKPOLARITY_HIGH;
  72:Src/tim.c     ****   sBreakDeadTimeConfig.AutomaticOutput = TIM_AUTOMATICOUTPUT_DISABLE;
  73:Src/tim.c     ****   if (HAL_TIMEx_ConfigBreakDeadTime(&htim1, &sBreakDeadTimeConfig) != HAL_OK)
  74:Src/tim.c     ****   {
  75:Src/tim.c     ****     Error_Handler();
  76:Src/tim.c     ****   }
  77:Src/tim.c     ****   HAL_TIM_MspPostInit(&htim1);
  78:Src/tim.c     **** 
  79:Src/tim.c     **** }
  80:Src/tim.c     **** /* TIM2 init function */
  81:Src/tim.c     **** void MX_TIM2_Init(void)
  82:Src/tim.c     **** {
  83:Src/tim.c     ****   TIM_MasterConfigTypeDef sMasterConfig = {0};
  84:Src/tim.c     ****   TIM_OC_InitTypeDef sConfigOC = {0};
  85:Src/tim.c     **** 
  86:Src/tim.c     ****   htim2.Instance = TIM2;
  87:Src/tim.c     ****   htim2.Init.Prescaler = 9;
  88:Src/tim.c     ****   htim2.Init.CounterMode = TIM_COUNTERMODE_UP;
ARM GAS  C:\Users\ncer\AppData\Local\Temp\ccuX9Zgh.s 			page 3


  89:Src/tim.c     ****   htim2.Init.Period = 15999;
  90:Src/tim.c     ****   htim2.Init.ClockDivision = TIM_CLOCKDIVISION_DIV1;
  91:Src/tim.c     ****   htim2.Init.AutoReloadPreload = TIM_AUTORELOAD_PRELOAD_DISABLE;
  92:Src/tim.c     ****   if (HAL_TIM_PWM_Init(&htim2) != HAL_OK)
  93:Src/tim.c     ****   {
  94:Src/tim.c     ****     Error_Handler();
  95:Src/tim.c     ****   }
  96:Src/tim.c     ****   sMasterConfig.MasterOutputTrigger = TIM_TRGO_RESET;
  97:Src/tim.c     ****   sMasterConfig.MasterSlaveMode = TIM_MASTERSLAVEMODE_DISABLE;
  98:Src/tim.c     ****   if (HAL_TIMEx_MasterConfigSynchronization(&htim2, &sMasterConfig) != HAL_OK)
  99:Src/tim.c     ****   {
 100:Src/tim.c     ****     Error_Handler();
 101:Src/tim.c     ****   }
 102:Src/tim.c     ****   sConfigOC.OCMode = TIM_OCMODE_PWM1;
 103:Src/tim.c     ****   sConfigOC.Pulse = 0;
 104:Src/tim.c     ****   sConfigOC.OCPolarity = TIM_OCPOLARITY_HIGH;
 105:Src/tim.c     ****   sConfigOC.OCFastMode = TIM_OCFAST_DISABLE;
 106:Src/tim.c     ****   if (HAL_TIM_PWM_ConfigChannel(&htim2, &sConfigOC, TIM_CHANNEL_1) != HAL_OK)
 107:Src/tim.c     ****   {
 108:Src/tim.c     ****     Error_Handler();
 109:Src/tim.c     ****   }
 110:Src/tim.c     ****   if (HAL_TIM_PWM_ConfigChannel(&htim2, &sConfigOC, TIM_CHANNEL_2) != HAL_OK)
 111:Src/tim.c     ****   {
 112:Src/tim.c     ****     Error_Handler();
 113:Src/tim.c     ****   }
 114:Src/tim.c     ****   HAL_TIM_MspPostInit(&htim2);
 115:Src/tim.c     **** 
 116:Src/tim.c     **** }
 117:Src/tim.c     **** /* TIM3 init function */
 118:Src/tim.c     **** void MX_TIM3_Init(void)
 119:Src/tim.c     **** {
 120:Src/tim.c     ****   TIM_MasterConfigTypeDef sMasterConfig = {0};
 121:Src/tim.c     ****   TIM_OC_InitTypeDef sConfigOC = {0};
 122:Src/tim.c     **** 
 123:Src/tim.c     ****   htim3.Instance = TIM3;
 124:Src/tim.c     ****   htim3.Init.Prescaler = 9;
 125:Src/tim.c     ****   htim3.Init.CounterMode = TIM_COUNTERMODE_UP;
 126:Src/tim.c     ****   htim3.Init.Period = 15999;
 127:Src/tim.c     ****   htim3.Init.ClockDivision = TIM_CLOCKDIVISION_DIV1;
 128:Src/tim.c     ****   htim3.Init.AutoReloadPreload = TIM_AUTORELOAD_PRELOAD_DISABLE;
 129:Src/tim.c     ****   if (HAL_TIM_PWM_Init(&htim3) != HAL_OK)
 130:Src/tim.c     ****   {
 131:Src/tim.c     ****     Error_Handler();
 132:Src/tim.c     ****   }
 133:Src/tim.c     ****   sMasterConfig.MasterOutputTrigger = TIM_TRGO_RESET;
 134:Src/tim.c     ****   sMasterConfig.MasterSlaveMode = TIM_MASTERSLAVEMODE_DISABLE;
 135:Src/tim.c     ****   if (HAL_TIMEx_MasterConfigSynchronization(&htim3, &sMasterConfig) != HAL_OK)
 136:Src/tim.c     ****   {
 137:Src/tim.c     ****     Error_Handler();
 138:Src/tim.c     ****   }
 139:Src/tim.c     ****   sConfigOC.OCMode = TIM_OCMODE_PWM1;
 140:Src/tim.c     ****   sConfigOC.Pulse = 0;
 141:Src/tim.c     ****   sConfigOC.OCPolarity = TIM_OCPOLARITY_HIGH;
 142:Src/tim.c     ****   sConfigOC.OCFastMode = TIM_OCFAST_DISABLE;
 143:Src/tim.c     ****   if (HAL_TIM_PWM_ConfigChannel(&htim3, &sConfigOC, TIM_CHANNEL_3) != HAL_OK)
 144:Src/tim.c     ****   {
 145:Src/tim.c     ****     Error_Handler();
ARM GAS  C:\Users\ncer\AppData\Local\Temp\ccuX9Zgh.s 			page 4


 146:Src/tim.c     ****   }
 147:Src/tim.c     ****   if (HAL_TIM_PWM_ConfigChannel(&htim3, &sConfigOC, TIM_CHANNEL_4) != HAL_OK)
 148:Src/tim.c     ****   {
 149:Src/tim.c     ****     Error_Handler();
 150:Src/tim.c     ****   }
 151:Src/tim.c     ****   HAL_TIM_MspPostInit(&htim3);
 152:Src/tim.c     **** 
 153:Src/tim.c     **** }
 154:Src/tim.c     **** 
 155:Src/tim.c     **** void HAL_TIM_PWM_MspInit(TIM_HandleTypeDef* tim_pwmHandle)
 156:Src/tim.c     **** {
  28              		.loc 1 156 1 view -0
  29              		.cfi_startproc
  30              		@ args = 0, pretend = 0, frame = 16
  31              		@ frame_needed = 0, uses_anonymous_args = 0
  32              		.loc 1 156 1 is_stmt 0 view .LVU1
  33 0000 10B5     		push	{r4, lr}
  34              	.LCFI0:
  35              		.cfi_def_cfa_offset 8
  36              		.cfi_offset 4, -8
  37              		.cfi_offset 14, -4
  38 0002 84B0     		sub	sp, sp, #16
  39              	.LCFI1:
  40              		.cfi_def_cfa_offset 24
 157:Src/tim.c     **** 
 158:Src/tim.c     ****   if(tim_pwmHandle->Instance==TIM1)
  41              		.loc 1 158 3 is_stmt 1 view .LVU2
  42              		.loc 1 158 19 is_stmt 0 view .LVU3
  43 0004 0368     		ldr	r3, [r0]
  44              		.loc 1 158 5 view .LVU4
  45 0006 254A     		ldr	r2, .L11
  46 0008 9342     		cmp	r3, r2
  47 000a 07D0     		beq	.L7
 159:Src/tim.c     ****   {
 160:Src/tim.c     ****   /* USER CODE BEGIN TIM1_MspInit 0 */
 161:Src/tim.c     **** 
 162:Src/tim.c     ****   /* USER CODE END TIM1_MspInit 0 */
 163:Src/tim.c     ****     /* TIM1 clock enable */
 164:Src/tim.c     ****     __HAL_RCC_TIM1_CLK_ENABLE();
 165:Src/tim.c     ****   
 166:Src/tim.c     ****     /* TIM1 DMA Init */
 167:Src/tim.c     ****     /* TIM1_CH4_TRIG_COM Init */
 168:Src/tim.c     ****     hdma_tim1_ch4_trig_com.Instance = DMA1_Channel4;
 169:Src/tim.c     ****     hdma_tim1_ch4_trig_com.Init.Direction = DMA_MEMORY_TO_PERIPH;
 170:Src/tim.c     ****     hdma_tim1_ch4_trig_com.Init.PeriphInc = DMA_PINC_DISABLE;
 171:Src/tim.c     ****     hdma_tim1_ch4_trig_com.Init.MemInc = DMA_MINC_ENABLE;
 172:Src/tim.c     ****     hdma_tim1_ch4_trig_com.Init.PeriphDataAlignment = DMA_PDATAALIGN_HALFWORD;
 173:Src/tim.c     ****     hdma_tim1_ch4_trig_com.Init.MemDataAlignment = DMA_MDATAALIGN_HALFWORD;
 174:Src/tim.c     ****     hdma_tim1_ch4_trig_com.Init.Mode = DMA_NORMAL;
 175:Src/tim.c     ****     hdma_tim1_ch4_trig_com.Init.Priority = DMA_PRIORITY_LOW;
 176:Src/tim.c     ****     if (HAL_DMA_Init(&hdma_tim1_ch4_trig_com) != HAL_OK)
 177:Src/tim.c     ****     {
 178:Src/tim.c     ****       Error_Handler();
 179:Src/tim.c     ****     }
 180:Src/tim.c     **** 
 181:Src/tim.c     ****     /* Several peripheral DMA handle pointers point to the same DMA handle.
 182:Src/tim.c     ****      Be aware that there is only one channel to perform all the requested DMAs. */
ARM GAS  C:\Users\ncer\AppData\Local\Temp\ccuX9Zgh.s 			page 5


 183:Src/tim.c     ****     __HAL_LINKDMA(tim_pwmHandle,hdma[TIM_DMA_ID_CC4],hdma_tim1_ch4_trig_com);
 184:Src/tim.c     ****     __HAL_LINKDMA(tim_pwmHandle,hdma[TIM_DMA_ID_TRIGGER],hdma_tim1_ch4_trig_com);
 185:Src/tim.c     ****     __HAL_LINKDMA(tim_pwmHandle,hdma[TIM_DMA_ID_COMMUTATION],hdma_tim1_ch4_trig_com);
 186:Src/tim.c     **** 
 187:Src/tim.c     ****   /* USER CODE BEGIN TIM1_MspInit 1 */
 188:Src/tim.c     **** 
 189:Src/tim.c     ****   /* USER CODE END TIM1_MspInit 1 */
 190:Src/tim.c     ****   }
 191:Src/tim.c     ****   else if(tim_pwmHandle->Instance==TIM2)
  48              		.loc 1 191 8 is_stmt 1 view .LVU5
  49              		.loc 1 191 10 is_stmt 0 view .LVU6
  50 000c B3F1804F 		cmp	r3, #1073741824
  51 0010 2CD0     		beq	.L8
 192:Src/tim.c     ****   {
 193:Src/tim.c     ****   /* USER CODE BEGIN TIM2_MspInit 0 */
 194:Src/tim.c     **** 
 195:Src/tim.c     ****   /* USER CODE END TIM2_MspInit 0 */
 196:Src/tim.c     ****     /* TIM2 clock enable */
 197:Src/tim.c     ****     __HAL_RCC_TIM2_CLK_ENABLE();
 198:Src/tim.c     ****   /* USER CODE BEGIN TIM2_MspInit 1 */
 199:Src/tim.c     **** 
 200:Src/tim.c     ****   /* USER CODE END TIM2_MspInit 1 */
 201:Src/tim.c     ****   }
 202:Src/tim.c     ****   else if(tim_pwmHandle->Instance==TIM3)
  52              		.loc 1 202 8 is_stmt 1 view .LVU7
  53              		.loc 1 202 10 is_stmt 0 view .LVU8
  54 0012 234A     		ldr	r2, .L11+4
  55 0014 9342     		cmp	r3, r2
  56 0016 35D0     		beq	.L9
  57              	.LVL1:
  58              	.L1:
 203:Src/tim.c     ****   {
 204:Src/tim.c     ****   /* USER CODE BEGIN TIM3_MspInit 0 */
 205:Src/tim.c     **** 
 206:Src/tim.c     ****   /* USER CODE END TIM3_MspInit 0 */
 207:Src/tim.c     ****     /* TIM3 clock enable */
 208:Src/tim.c     ****     __HAL_RCC_TIM3_CLK_ENABLE();
 209:Src/tim.c     ****   /* USER CODE BEGIN TIM3_MspInit 1 */
 210:Src/tim.c     **** 
 211:Src/tim.c     ****   /* USER CODE END TIM3_MspInit 1 */
 212:Src/tim.c     ****   }
 213:Src/tim.c     **** }
  59              		.loc 1 213 1 view .LVU9
  60 0018 04B0     		add	sp, sp, #16
  61              	.LCFI2:
  62              		.cfi_remember_state
  63              		.cfi_def_cfa_offset 8
  64              		@ sp needed
  65 001a 10BD     		pop	{r4, pc}
  66              	.LVL2:
  67              	.L7:
  68              	.LCFI3:
  69              		.cfi_restore_state
  70              		.loc 1 213 1 view .LVU10
  71 001c 0446     		mov	r4, r0
 164:Src/tim.c     ****   
  72              		.loc 1 164 5 is_stmt 1 view .LVU11
ARM GAS  C:\Users\ncer\AppData\Local\Temp\ccuX9Zgh.s 			page 6


  73              	.LBB2:
 164:Src/tim.c     ****   
  74              		.loc 1 164 5 view .LVU12
 164:Src/tim.c     ****   
  75              		.loc 1 164 5 view .LVU13
  76 001e 214B     		ldr	r3, .L11+8
  77 0020 9A69     		ldr	r2, [r3, #24]
  78 0022 42F40062 		orr	r2, r2, #2048
  79 0026 9A61     		str	r2, [r3, #24]
 164:Src/tim.c     ****   
  80              		.loc 1 164 5 view .LVU14
  81 0028 9B69     		ldr	r3, [r3, #24]
  82 002a 03F40063 		and	r3, r3, #2048
  83 002e 0193     		str	r3, [sp, #4]
 164:Src/tim.c     ****   
  84              		.loc 1 164 5 view .LVU15
  85 0030 019B     		ldr	r3, [sp, #4]
  86              	.LBE2:
 164:Src/tim.c     ****   
  87              		.loc 1 164 5 view .LVU16
 168:Src/tim.c     ****     hdma_tim1_ch4_trig_com.Init.Direction = DMA_MEMORY_TO_PERIPH;
  88              		.loc 1 168 5 view .LVU17
 168:Src/tim.c     ****     hdma_tim1_ch4_trig_com.Init.Direction = DMA_MEMORY_TO_PERIPH;
  89              		.loc 1 168 37 is_stmt 0 view .LVU18
  90 0032 1D48     		ldr	r0, .L11+12
  91              	.LVL3:
 168:Src/tim.c     ****     hdma_tim1_ch4_trig_com.Init.Direction = DMA_MEMORY_TO_PERIPH;
  92              		.loc 1 168 37 view .LVU19
  93 0034 1D4B     		ldr	r3, .L11+16
  94 0036 0360     		str	r3, [r0]
 169:Src/tim.c     ****     hdma_tim1_ch4_trig_com.Init.PeriphInc = DMA_PINC_DISABLE;
  95              		.loc 1 169 5 is_stmt 1 view .LVU20
 169:Src/tim.c     ****     hdma_tim1_ch4_trig_com.Init.PeriphInc = DMA_PINC_DISABLE;
  96              		.loc 1 169 43 is_stmt 0 view .LVU21
  97 0038 1023     		movs	r3, #16
  98 003a 4360     		str	r3, [r0, #4]
 170:Src/tim.c     ****     hdma_tim1_ch4_trig_com.Init.MemInc = DMA_MINC_ENABLE;
  99              		.loc 1 170 5 is_stmt 1 view .LVU22
 170:Src/tim.c     ****     hdma_tim1_ch4_trig_com.Init.MemInc = DMA_MINC_ENABLE;
 100              		.loc 1 170 43 is_stmt 0 view .LVU23
 101 003c 0023     		movs	r3, #0
 102 003e 8360     		str	r3, [r0, #8]
 171:Src/tim.c     ****     hdma_tim1_ch4_trig_com.Init.PeriphDataAlignment = DMA_PDATAALIGN_HALFWORD;
 103              		.loc 1 171 5 is_stmt 1 view .LVU24
 171:Src/tim.c     ****     hdma_tim1_ch4_trig_com.Init.PeriphDataAlignment = DMA_PDATAALIGN_HALFWORD;
 104              		.loc 1 171 40 is_stmt 0 view .LVU25
 105 0040 8022     		movs	r2, #128
 106 0042 C260     		str	r2, [r0, #12]
 172:Src/tim.c     ****     hdma_tim1_ch4_trig_com.Init.MemDataAlignment = DMA_MDATAALIGN_HALFWORD;
 107              		.loc 1 172 5 is_stmt 1 view .LVU26
 172:Src/tim.c     ****     hdma_tim1_ch4_trig_com.Init.MemDataAlignment = DMA_MDATAALIGN_HALFWORD;
 108              		.loc 1 172 53 is_stmt 0 view .LVU27
 109 0044 4FF48072 		mov	r2, #256
 110 0048 0261     		str	r2, [r0, #16]
 173:Src/tim.c     ****     hdma_tim1_ch4_trig_com.Init.Mode = DMA_NORMAL;
 111              		.loc 1 173 5 is_stmt 1 view .LVU28
 173:Src/tim.c     ****     hdma_tim1_ch4_trig_com.Init.Mode = DMA_NORMAL;
ARM GAS  C:\Users\ncer\AppData\Local\Temp\ccuX9Zgh.s 			page 7


 112              		.loc 1 173 50 is_stmt 0 view .LVU29
 113 004a 4FF48062 		mov	r2, #1024
 114 004e 4261     		str	r2, [r0, #20]
 174:Src/tim.c     ****     hdma_tim1_ch4_trig_com.Init.Priority = DMA_PRIORITY_LOW;
 115              		.loc 1 174 5 is_stmt 1 view .LVU30
 174:Src/tim.c     ****     hdma_tim1_ch4_trig_com.Init.Priority = DMA_PRIORITY_LOW;
 116              		.loc 1 174 38 is_stmt 0 view .LVU31
 117 0050 8361     		str	r3, [r0, #24]
 175:Src/tim.c     ****     if (HAL_DMA_Init(&hdma_tim1_ch4_trig_com) != HAL_OK)
 118              		.loc 1 175 5 is_stmt 1 view .LVU32
 175:Src/tim.c     ****     if (HAL_DMA_Init(&hdma_tim1_ch4_trig_com) != HAL_OK)
 119              		.loc 1 175 42 is_stmt 0 view .LVU33
 120 0052 C361     		str	r3, [r0, #28]
 176:Src/tim.c     ****     {
 121              		.loc 1 176 5 is_stmt 1 view .LVU34
 176:Src/tim.c     ****     {
 122              		.loc 1 176 9 is_stmt 0 view .LVU35
 123 0054 FFF7FEFF 		bl	HAL_DMA_Init
 124              	.LVL4:
 176:Src/tim.c     ****     {
 125              		.loc 1 176 8 view .LVU36
 126 0058 28B9     		cbnz	r0, .L10
 127              	.L3:
 183:Src/tim.c     ****     __HAL_LINKDMA(tim_pwmHandle,hdma[TIM_DMA_ID_TRIGGER],hdma_tim1_ch4_trig_com);
 128              		.loc 1 183 5 is_stmt 1 view .LVU37
 183:Src/tim.c     ****     __HAL_LINKDMA(tim_pwmHandle,hdma[TIM_DMA_ID_TRIGGER],hdma_tim1_ch4_trig_com);
 129              		.loc 1 183 5 view .LVU38
 130 005a 134B     		ldr	r3, .L11+12
 131 005c 2363     		str	r3, [r4, #48]
 183:Src/tim.c     ****     __HAL_LINKDMA(tim_pwmHandle,hdma[TIM_DMA_ID_TRIGGER],hdma_tim1_ch4_trig_com);
 132              		.loc 1 183 5 view .LVU39
 133 005e 5C62     		str	r4, [r3, #36]
 183:Src/tim.c     ****     __HAL_LINKDMA(tim_pwmHandle,hdma[TIM_DMA_ID_TRIGGER],hdma_tim1_ch4_trig_com);
 134              		.loc 1 183 5 view .LVU40
 184:Src/tim.c     ****     __HAL_LINKDMA(tim_pwmHandle,hdma[TIM_DMA_ID_COMMUTATION],hdma_tim1_ch4_trig_com);
 135              		.loc 1 184 5 view .LVU41
 184:Src/tim.c     ****     __HAL_LINKDMA(tim_pwmHandle,hdma[TIM_DMA_ID_COMMUTATION],hdma_tim1_ch4_trig_com);
 136              		.loc 1 184 5 view .LVU42
 137 0060 A363     		str	r3, [r4, #56]
 184:Src/tim.c     ****     __HAL_LINKDMA(tim_pwmHandle,hdma[TIM_DMA_ID_COMMUTATION],hdma_tim1_ch4_trig_com);
 138              		.loc 1 184 5 view .LVU43
 184:Src/tim.c     ****     __HAL_LINKDMA(tim_pwmHandle,hdma[TIM_DMA_ID_COMMUTATION],hdma_tim1_ch4_trig_com);
 139              		.loc 1 184 5 view .LVU44
 185:Src/tim.c     **** 
 140              		.loc 1 185 5 view .LVU45
 185:Src/tim.c     **** 
 141              		.loc 1 185 5 view .LVU46
 142 0062 6363     		str	r3, [r4, #52]
 185:Src/tim.c     **** 
 143              		.loc 1 185 5 view .LVU47
 185:Src/tim.c     **** 
 144              		.loc 1 185 5 view .LVU48
 145 0064 D8E7     		b	.L1
 146              	.L10:
 178:Src/tim.c     ****     }
 147              		.loc 1 178 7 view .LVU49
 148 0066 FFF7FEFF 		bl	Error_Handler
ARM GAS  C:\Users\ncer\AppData\Local\Temp\ccuX9Zgh.s 			page 8


 149              	.LVL5:
 150 006a F6E7     		b	.L3
 151              	.LVL6:
 152              	.L8:
 197:Src/tim.c     ****   /* USER CODE BEGIN TIM2_MspInit 1 */
 153              		.loc 1 197 5 view .LVU50
 154              	.LBB3:
 197:Src/tim.c     ****   /* USER CODE BEGIN TIM2_MspInit 1 */
 155              		.loc 1 197 5 view .LVU51
 197:Src/tim.c     ****   /* USER CODE BEGIN TIM2_MspInit 1 */
 156              		.loc 1 197 5 view .LVU52
 157 006c 03F50433 		add	r3, r3, #135168
 158 0070 DA69     		ldr	r2, [r3, #28]
 159 0072 42F00102 		orr	r2, r2, #1
 160 0076 DA61     		str	r2, [r3, #28]
 197:Src/tim.c     ****   /* USER CODE BEGIN TIM2_MspInit 1 */
 161              		.loc 1 197 5 view .LVU53
 162 0078 DB69     		ldr	r3, [r3, #28]
 163 007a 03F00103 		and	r3, r3, #1
 164 007e 0293     		str	r3, [sp, #8]
 197:Src/tim.c     ****   /* USER CODE BEGIN TIM2_MspInit 1 */
 165              		.loc 1 197 5 view .LVU54
 166 0080 029B     		ldr	r3, [sp, #8]
 167              	.LBE3:
 197:Src/tim.c     ****   /* USER CODE BEGIN TIM2_MspInit 1 */
 168              		.loc 1 197 5 view .LVU55
 169 0082 C9E7     		b	.L1
 170              	.L9:
 208:Src/tim.c     ****   /* USER CODE BEGIN TIM3_MspInit 1 */
 171              		.loc 1 208 5 view .LVU56
 172              	.LBB4:
 208:Src/tim.c     ****   /* USER CODE BEGIN TIM3_MspInit 1 */
 173              		.loc 1 208 5 view .LVU57
 208:Src/tim.c     ****   /* USER CODE BEGIN TIM3_MspInit 1 */
 174              		.loc 1 208 5 view .LVU58
 175 0084 074B     		ldr	r3, .L11+8
 176 0086 DA69     		ldr	r2, [r3, #28]
 177 0088 42F00202 		orr	r2, r2, #2
 178 008c DA61     		str	r2, [r3, #28]
 208:Src/tim.c     ****   /* USER CODE BEGIN TIM3_MspInit 1 */
 179              		.loc 1 208 5 view .LVU59
 180 008e DB69     		ldr	r3, [r3, #28]
 181 0090 03F00203 		and	r3, r3, #2
 182 0094 0393     		str	r3, [sp, #12]
 208:Src/tim.c     ****   /* USER CODE BEGIN TIM3_MspInit 1 */
 183              		.loc 1 208 5 view .LVU60
 184 0096 039B     		ldr	r3, [sp, #12]
 185              	.LBE4:
 208:Src/tim.c     ****   /* USER CODE BEGIN TIM3_MspInit 1 */
 186              		.loc 1 208 5 view .LVU61
 187              		.loc 1 213 1 is_stmt 0 view .LVU62
 188 0098 BEE7     		b	.L1
 189              	.L12:
 190 009a 00BF     		.align	2
 191              	.L11:
 192 009c 002C0140 		.word	1073818624
 193 00a0 00040040 		.word	1073742848
ARM GAS  C:\Users\ncer\AppData\Local\Temp\ccuX9Zgh.s 			page 9


 194 00a4 00100240 		.word	1073876992
 195 00a8 00000000 		.word	hdma_tim1_ch4_trig_com
 196 00ac 44000240 		.word	1073872964
 197              		.cfi_endproc
 198              	.LFE68:
 200              		.section	.text.HAL_TIM_MspPostInit,"ax",%progbits
 201              		.align	1
 202              		.global	HAL_TIM_MspPostInit
 203              		.syntax unified
 204              		.thumb
 205              		.thumb_func
 206              		.fpu softvfp
 208              	HAL_TIM_MspPostInit:
 209              	.LVL7:
 210              	.LFB69:
 214:Src/tim.c     **** void HAL_TIM_MspPostInit(TIM_HandleTypeDef* timHandle)
 215:Src/tim.c     **** {
 211              		.loc 1 215 1 is_stmt 1 view -0
 212              		.cfi_startproc
 213              		@ args = 0, pretend = 0, frame = 32
 214              		@ frame_needed = 0, uses_anonymous_args = 0
 215              		.loc 1 215 1 is_stmt 0 view .LVU64
 216 0000 00B5     		push	{lr}
 217              	.LCFI4:
 218              		.cfi_def_cfa_offset 4
 219              		.cfi_offset 14, -4
 220 0002 89B0     		sub	sp, sp, #36
 221              	.LCFI5:
 222              		.cfi_def_cfa_offset 40
 216:Src/tim.c     **** 
 217:Src/tim.c     ****   GPIO_InitTypeDef GPIO_InitStruct = {0};
 223              		.loc 1 217 3 is_stmt 1 view .LVU65
 224              		.loc 1 217 20 is_stmt 0 view .LVU66
 225 0004 0023     		movs	r3, #0
 226 0006 0493     		str	r3, [sp, #16]
 227 0008 0593     		str	r3, [sp, #20]
 228 000a 0693     		str	r3, [sp, #24]
 229 000c 0793     		str	r3, [sp, #28]
 218:Src/tim.c     ****   if(timHandle->Instance==TIM1)
 230              		.loc 1 218 3 is_stmt 1 view .LVU67
 231              		.loc 1 218 15 is_stmt 0 view .LVU68
 232 000e 0368     		ldr	r3, [r0]
 233              		.loc 1 218 5 view .LVU69
 234 0010 244A     		ldr	r2, .L21
 235 0012 9342     		cmp	r3, r2
 236 0014 08D0     		beq	.L18
 219:Src/tim.c     ****   {
 220:Src/tim.c     ****   /* USER CODE BEGIN TIM1_MspPostInit 0 */
 221:Src/tim.c     **** 
 222:Src/tim.c     ****   /* USER CODE END TIM1_MspPostInit 0 */
 223:Src/tim.c     ****     __HAL_RCC_GPIOA_CLK_ENABLE();
 224:Src/tim.c     ****     /**TIM1 GPIO Configuration    
 225:Src/tim.c     ****     PA11     ------> TIM1_CH4 
 226:Src/tim.c     ****     */
 227:Src/tim.c     ****     GPIO_InitStruct.Pin = LED_PWM_Pin;
 228:Src/tim.c     ****     GPIO_InitStruct.Mode = GPIO_MODE_AF_PP;
 229:Src/tim.c     ****     GPIO_InitStruct.Speed = GPIO_SPEED_FREQ_LOW;
ARM GAS  C:\Users\ncer\AppData\Local\Temp\ccuX9Zgh.s 			page 10


 230:Src/tim.c     ****     HAL_GPIO_Init(LED_PWM_GPIO_Port, &GPIO_InitStruct);
 231:Src/tim.c     **** 
 232:Src/tim.c     ****   /* USER CODE BEGIN TIM1_MspPostInit 1 */
 233:Src/tim.c     **** 
 234:Src/tim.c     ****   /* USER CODE END TIM1_MspPostInit 1 */
 235:Src/tim.c     ****   }
 236:Src/tim.c     ****   else if(timHandle->Instance==TIM2)
 237              		.loc 1 236 8 is_stmt 1 view .LVU70
 238              		.loc 1 236 10 is_stmt 0 view .LVU71
 239 0016 B3F1804F 		cmp	r3, #1073741824
 240 001a 1AD0     		beq	.L19
 237:Src/tim.c     ****   {
 238:Src/tim.c     ****   /* USER CODE BEGIN TIM2_MspPostInit 0 */
 239:Src/tim.c     **** 
 240:Src/tim.c     ****   /* USER CODE END TIM2_MspPostInit 0 */
 241:Src/tim.c     ****   
 242:Src/tim.c     ****     __HAL_RCC_GPIOA_CLK_ENABLE();
 243:Src/tim.c     ****     /**TIM2 GPIO Configuration    
 244:Src/tim.c     ****     PA0-WKUP     ------> TIM2_CH1
 245:Src/tim.c     ****     PA1     ------> TIM2_CH2 
 246:Src/tim.c     ****     */
 247:Src/tim.c     ****     GPIO_InitStruct.Pin = GPIO_PIN_0|GPIO_PIN_1;
 248:Src/tim.c     ****     GPIO_InitStruct.Mode = GPIO_MODE_AF_PP;
 249:Src/tim.c     ****     GPIO_InitStruct.Speed = GPIO_SPEED_FREQ_LOW;
 250:Src/tim.c     ****     HAL_GPIO_Init(GPIOA, &GPIO_InitStruct);
 251:Src/tim.c     **** 
 252:Src/tim.c     ****   /* USER CODE BEGIN TIM2_MspPostInit 1 */
 253:Src/tim.c     **** 
 254:Src/tim.c     ****   /* USER CODE END TIM2_MspPostInit 1 */
 255:Src/tim.c     ****   }
 256:Src/tim.c     ****   else if(timHandle->Instance==TIM3)
 241              		.loc 1 256 8 is_stmt 1 view .LVU72
 242              		.loc 1 256 10 is_stmt 0 view .LVU73
 243 001c 224A     		ldr	r2, .L21+4
 244 001e 9342     		cmp	r3, r2
 245 0020 2CD0     		beq	.L20
 246              	.LVL8:
 247              	.L13:
 257:Src/tim.c     ****   {
 258:Src/tim.c     ****   /* USER CODE BEGIN TIM3_MspPostInit 0 */
 259:Src/tim.c     **** 
 260:Src/tim.c     ****   /* USER CODE END TIM3_MspPostInit 0 */
 261:Src/tim.c     ****   
 262:Src/tim.c     ****     __HAL_RCC_GPIOB_CLK_ENABLE();
 263:Src/tim.c     ****     /**TIM3 GPIO Configuration    
 264:Src/tim.c     ****     PB0     ------> TIM3_CH3
 265:Src/tim.c     ****     PB1     ------> TIM3_CH4 
 266:Src/tim.c     ****     */
 267:Src/tim.c     ****     GPIO_InitStruct.Pin = GPIO_PIN_0|GPIO_PIN_1;
 268:Src/tim.c     ****     GPIO_InitStruct.Mode = GPIO_MODE_AF_PP;
 269:Src/tim.c     ****     GPIO_InitStruct.Speed = GPIO_SPEED_FREQ_LOW;
 270:Src/tim.c     ****     HAL_GPIO_Init(GPIOB, &GPIO_InitStruct);
 271:Src/tim.c     **** 
 272:Src/tim.c     ****   /* USER CODE BEGIN TIM3_MspPostInit 1 */
 273:Src/tim.c     **** 
 274:Src/tim.c     ****   /* USER CODE END TIM3_MspPostInit 1 */
 275:Src/tim.c     ****   }
ARM GAS  C:\Users\ncer\AppData\Local\Temp\ccuX9Zgh.s 			page 11


 276:Src/tim.c     **** 
 277:Src/tim.c     **** }
 248              		.loc 1 277 1 view .LVU74
 249 0022 09B0     		add	sp, sp, #36
 250              	.LCFI6:
 251              		.cfi_remember_state
 252              		.cfi_def_cfa_offset 4
 253              		@ sp needed
 254 0024 5DF804FB 		ldr	pc, [sp], #4
 255              	.LVL9:
 256              	.L18:
 257              	.LCFI7:
 258              		.cfi_restore_state
 223:Src/tim.c     ****     /**TIM1 GPIO Configuration    
 259              		.loc 1 223 5 is_stmt 1 view .LVU75
 260              	.LBB5:
 223:Src/tim.c     ****     /**TIM1 GPIO Configuration    
 261              		.loc 1 223 5 view .LVU76
 223:Src/tim.c     ****     /**TIM1 GPIO Configuration    
 262              		.loc 1 223 5 view .LVU77
 263 0028 204B     		ldr	r3, .L21+8
 264 002a 9A69     		ldr	r2, [r3, #24]
 265 002c 42F00402 		orr	r2, r2, #4
 266 0030 9A61     		str	r2, [r3, #24]
 223:Src/tim.c     ****     /**TIM1 GPIO Configuration    
 267              		.loc 1 223 5 view .LVU78
 268 0032 9B69     		ldr	r3, [r3, #24]
 269 0034 03F00403 		and	r3, r3, #4
 270 0038 0193     		str	r3, [sp, #4]
 223:Src/tim.c     ****     /**TIM1 GPIO Configuration    
 271              		.loc 1 223 5 view .LVU79
 272 003a 019B     		ldr	r3, [sp, #4]
 273              	.LBE5:
 223:Src/tim.c     ****     /**TIM1 GPIO Configuration    
 274              		.loc 1 223 5 view .LVU80
 227:Src/tim.c     ****     GPIO_InitStruct.Mode = GPIO_MODE_AF_PP;
 275              		.loc 1 227 5 view .LVU81
 227:Src/tim.c     ****     GPIO_InitStruct.Mode = GPIO_MODE_AF_PP;
 276              		.loc 1 227 25 is_stmt 0 view .LVU82
 277 003c 4FF40063 		mov	r3, #2048
 278 0040 0493     		str	r3, [sp, #16]
 228:Src/tim.c     ****     GPIO_InitStruct.Speed = GPIO_SPEED_FREQ_LOW;
 279              		.loc 1 228 5 is_stmt 1 view .LVU83
 228:Src/tim.c     ****     GPIO_InitStruct.Speed = GPIO_SPEED_FREQ_LOW;
 280              		.loc 1 228 26 is_stmt 0 view .LVU84
 281 0042 0223     		movs	r3, #2
 282 0044 0593     		str	r3, [sp, #20]
 229:Src/tim.c     ****     HAL_GPIO_Init(LED_PWM_GPIO_Port, &GPIO_InitStruct);
 283              		.loc 1 229 5 is_stmt 1 view .LVU85
 229:Src/tim.c     ****     HAL_GPIO_Init(LED_PWM_GPIO_Port, &GPIO_InitStruct);
 284              		.loc 1 229 27 is_stmt 0 view .LVU86
 285 0046 0793     		str	r3, [sp, #28]
 230:Src/tim.c     **** 
 286              		.loc 1 230 5 is_stmt 1 view .LVU87
 287 0048 04A9     		add	r1, sp, #16
 288 004a 1948     		ldr	r0, .L21+12
 289              	.LVL10:
ARM GAS  C:\Users\ncer\AppData\Local\Temp\ccuX9Zgh.s 			page 12


 230:Src/tim.c     **** 
 290              		.loc 1 230 5 is_stmt 0 view .LVU88
 291 004c FFF7FEFF 		bl	HAL_GPIO_Init
 292              	.LVL11:
 293 0050 E7E7     		b	.L13
 294              	.LVL12:
 295              	.L19:
 242:Src/tim.c     ****     /**TIM2 GPIO Configuration    
 296              		.loc 1 242 5 is_stmt 1 view .LVU89
 297              	.LBB6:
 242:Src/tim.c     ****     /**TIM2 GPIO Configuration    
 298              		.loc 1 242 5 view .LVU90
 242:Src/tim.c     ****     /**TIM2 GPIO Configuration    
 299              		.loc 1 242 5 view .LVU91
 300 0052 03F50433 		add	r3, r3, #135168
 301 0056 9A69     		ldr	r2, [r3, #24]
 302 0058 42F00402 		orr	r2, r2, #4
 303 005c 9A61     		str	r2, [r3, #24]
 242:Src/tim.c     ****     /**TIM2 GPIO Configuration    
 304              		.loc 1 242 5 view .LVU92
 305 005e 9B69     		ldr	r3, [r3, #24]
 306 0060 03F00403 		and	r3, r3, #4
 307 0064 0293     		str	r3, [sp, #8]
 242:Src/tim.c     ****     /**TIM2 GPIO Configuration    
 308              		.loc 1 242 5 view .LVU93
 309 0066 029B     		ldr	r3, [sp, #8]
 310              	.LBE6:
 242:Src/tim.c     ****     /**TIM2 GPIO Configuration    
 311              		.loc 1 242 5 view .LVU94
 247:Src/tim.c     ****     GPIO_InitStruct.Mode = GPIO_MODE_AF_PP;
 312              		.loc 1 247 5 view .LVU95
 247:Src/tim.c     ****     GPIO_InitStruct.Mode = GPIO_MODE_AF_PP;
 313              		.loc 1 247 25 is_stmt 0 view .LVU96
 314 0068 0323     		movs	r3, #3
 315 006a 0493     		str	r3, [sp, #16]
 248:Src/tim.c     ****     GPIO_InitStruct.Speed = GPIO_SPEED_FREQ_LOW;
 316              		.loc 1 248 5 is_stmt 1 view .LVU97
 248:Src/tim.c     ****     GPIO_InitStruct.Speed = GPIO_SPEED_FREQ_LOW;
 317              		.loc 1 248 26 is_stmt 0 view .LVU98
 318 006c 0223     		movs	r3, #2
 319 006e 0593     		str	r3, [sp, #20]
 249:Src/tim.c     ****     HAL_GPIO_Init(GPIOA, &GPIO_InitStruct);
 320              		.loc 1 249 5 is_stmt 1 view .LVU99
 249:Src/tim.c     ****     HAL_GPIO_Init(GPIOA, &GPIO_InitStruct);
 321              		.loc 1 249 27 is_stmt 0 view .LVU100
 322 0070 0793     		str	r3, [sp, #28]
 250:Src/tim.c     **** 
 323              		.loc 1 250 5 is_stmt 1 view .LVU101
 324 0072 04A9     		add	r1, sp, #16
 325 0074 0E48     		ldr	r0, .L21+12
 326              	.LVL13:
 250:Src/tim.c     **** 
 327              		.loc 1 250 5 is_stmt 0 view .LVU102
 328 0076 FFF7FEFF 		bl	HAL_GPIO_Init
 329              	.LVL14:
 330 007a D2E7     		b	.L13
 331              	.LVL15:
ARM GAS  C:\Users\ncer\AppData\Local\Temp\ccuX9Zgh.s 			page 13


 332              	.L20:
 262:Src/tim.c     ****     /**TIM3 GPIO Configuration    
 333              		.loc 1 262 5 is_stmt 1 view .LVU103
 334              	.LBB7:
 262:Src/tim.c     ****     /**TIM3 GPIO Configuration    
 335              		.loc 1 262 5 view .LVU104
 262:Src/tim.c     ****     /**TIM3 GPIO Configuration    
 336              		.loc 1 262 5 view .LVU105
 337 007c 0B4B     		ldr	r3, .L21+8
 338 007e 9A69     		ldr	r2, [r3, #24]
 339 0080 42F00802 		orr	r2, r2, #8
 340 0084 9A61     		str	r2, [r3, #24]
 262:Src/tim.c     ****     /**TIM3 GPIO Configuration    
 341              		.loc 1 262 5 view .LVU106
 342 0086 9B69     		ldr	r3, [r3, #24]
 343 0088 03F00803 		and	r3, r3, #8
 344 008c 0393     		str	r3, [sp, #12]
 262:Src/tim.c     ****     /**TIM3 GPIO Configuration    
 345              		.loc 1 262 5 view .LVU107
 346 008e 039B     		ldr	r3, [sp, #12]
 347              	.LBE7:
 262:Src/tim.c     ****     /**TIM3 GPIO Configuration    
 348              		.loc 1 262 5 view .LVU108
 267:Src/tim.c     ****     GPIO_InitStruct.Mode = GPIO_MODE_AF_PP;
 349              		.loc 1 267 5 view .LVU109
 267:Src/tim.c     ****     GPIO_InitStruct.Mode = GPIO_MODE_AF_PP;
 350              		.loc 1 267 25 is_stmt 0 view .LVU110
 351 0090 0323     		movs	r3, #3
 352 0092 0493     		str	r3, [sp, #16]
 268:Src/tim.c     ****     GPIO_InitStruct.Speed = GPIO_SPEED_FREQ_LOW;
 353              		.loc 1 268 5 is_stmt 1 view .LVU111
 268:Src/tim.c     ****     GPIO_InitStruct.Speed = GPIO_SPEED_FREQ_LOW;
 354              		.loc 1 268 26 is_stmt 0 view .LVU112
 355 0094 0223     		movs	r3, #2
 356 0096 0593     		str	r3, [sp, #20]
 269:Src/tim.c     ****     HAL_GPIO_Init(GPIOB, &GPIO_InitStruct);
 357              		.loc 1 269 5 is_stmt 1 view .LVU113
 269:Src/tim.c     ****     HAL_GPIO_Init(GPIOB, &GPIO_InitStruct);
 358              		.loc 1 269 27 is_stmt 0 view .LVU114
 359 0098 0793     		str	r3, [sp, #28]
 270:Src/tim.c     **** 
 360              		.loc 1 270 5 is_stmt 1 view .LVU115
 361 009a 04A9     		add	r1, sp, #16
 362 009c 0548     		ldr	r0, .L21+16
 363              	.LVL16:
 270:Src/tim.c     **** 
 364              		.loc 1 270 5 is_stmt 0 view .LVU116
 365 009e FFF7FEFF 		bl	HAL_GPIO_Init
 366              	.LVL17:
 367              		.loc 1 277 1 view .LVU117
 368 00a2 BEE7     		b	.L13
 369              	.L22:
 370              		.align	2
 371              	.L21:
 372 00a4 002C0140 		.word	1073818624
 373 00a8 00040040 		.word	1073742848
 374 00ac 00100240 		.word	1073876992
ARM GAS  C:\Users\ncer\AppData\Local\Temp\ccuX9Zgh.s 			page 14


 375 00b0 00080140 		.word	1073809408
 376 00b4 000C0140 		.word	1073810432
 377              		.cfi_endproc
 378              	.LFE69:
 380              		.section	.text.MX_TIM1_Init,"ax",%progbits
 381              		.align	1
 382              		.global	MX_TIM1_Init
 383              		.syntax unified
 384              		.thumb
 385              		.thumb_func
 386              		.fpu softvfp
 388              	MX_TIM1_Init:
 389              	.LFB65:
  34:Src/tim.c     ****   TIM_MasterConfigTypeDef sMasterConfig = {0};
 390              		.loc 1 34 1 is_stmt 1 view -0
 391              		.cfi_startproc
 392              		@ args = 0, pretend = 0, frame = 72
 393              		@ frame_needed = 0, uses_anonymous_args = 0
 394 0000 10B5     		push	{r4, lr}
 395              	.LCFI8:
 396              		.cfi_def_cfa_offset 8
 397              		.cfi_offset 4, -8
 398              		.cfi_offset 14, -4
 399 0002 92B0     		sub	sp, sp, #72
 400              	.LCFI9:
 401              		.cfi_def_cfa_offset 80
  35:Src/tim.c     ****   TIM_OC_InitTypeDef sConfigOC = {0};
 402              		.loc 1 35 3 view .LVU119
  35:Src/tim.c     ****   TIM_OC_InitTypeDef sConfigOC = {0};
 403              		.loc 1 35 27 is_stmt 0 view .LVU120
 404 0004 0024     		movs	r4, #0
 405 0006 1094     		str	r4, [sp, #64]
 406 0008 1194     		str	r4, [sp, #68]
  36:Src/tim.c     ****   TIM_BreakDeadTimeConfigTypeDef sBreakDeadTimeConfig = {0};
 407              		.loc 1 36 3 is_stmt 1 view .LVU121
  36:Src/tim.c     ****   TIM_BreakDeadTimeConfigTypeDef sBreakDeadTimeConfig = {0};
 408              		.loc 1 36 22 is_stmt 0 view .LVU122
 409 000a 0994     		str	r4, [sp, #36]
 410 000c 0A94     		str	r4, [sp, #40]
 411 000e 0B94     		str	r4, [sp, #44]
 412 0010 0C94     		str	r4, [sp, #48]
 413 0012 0D94     		str	r4, [sp, #52]
 414 0014 0E94     		str	r4, [sp, #56]
 415 0016 0F94     		str	r4, [sp, #60]
  37:Src/tim.c     **** 
 416              		.loc 1 37 3 is_stmt 1 view .LVU123
  37:Src/tim.c     **** 
 417              		.loc 1 37 34 is_stmt 0 view .LVU124
 418 0018 2022     		movs	r2, #32
 419 001a 2146     		mov	r1, r4
 420 001c 01A8     		add	r0, sp, #4
 421 001e FFF7FEFF 		bl	memset
 422              	.LVL18:
  39:Src/tim.c     ****   htim1.Init.Prescaler = 0;
 423              		.loc 1 39 3 is_stmt 1 view .LVU125
  39:Src/tim.c     ****   htim1.Init.Prescaler = 0;
 424              		.loc 1 39 18 is_stmt 0 view .LVU126
ARM GAS  C:\Users\ncer\AppData\Local\Temp\ccuX9Zgh.s 			page 15


 425 0022 2148     		ldr	r0, .L33
 426 0024 214B     		ldr	r3, .L33+4
 427 0026 0360     		str	r3, [r0]
  40:Src/tim.c     ****   htim1.Init.CounterMode = TIM_COUNTERMODE_UP;
 428              		.loc 1 40 3 is_stmt 1 view .LVU127
  40:Src/tim.c     ****   htim1.Init.CounterMode = TIM_COUNTERMODE_UP;
 429              		.loc 1 40 24 is_stmt 0 view .LVU128
 430 0028 4460     		str	r4, [r0, #4]
  41:Src/tim.c     ****   htim1.Init.Period = 0;
 431              		.loc 1 41 3 is_stmt 1 view .LVU129
  41:Src/tim.c     ****   htim1.Init.Period = 0;
 432              		.loc 1 41 26 is_stmt 0 view .LVU130
 433 002a 8460     		str	r4, [r0, #8]
  42:Src/tim.c     ****   htim1.Init.ClockDivision = TIM_CLOCKDIVISION_DIV1;
 434              		.loc 1 42 3 is_stmt 1 view .LVU131
  42:Src/tim.c     ****   htim1.Init.ClockDivision = TIM_CLOCKDIVISION_DIV1;
 435              		.loc 1 42 21 is_stmt 0 view .LVU132
 436 002c C460     		str	r4, [r0, #12]
  43:Src/tim.c     ****   htim1.Init.RepetitionCounter = 0;
 437              		.loc 1 43 3 is_stmt 1 view .LVU133
  43:Src/tim.c     ****   htim1.Init.RepetitionCounter = 0;
 438              		.loc 1 43 28 is_stmt 0 view .LVU134
 439 002e 0461     		str	r4, [r0, #16]
  44:Src/tim.c     ****   htim1.Init.AutoReloadPreload = TIM_AUTORELOAD_PRELOAD_DISABLE;
 440              		.loc 1 44 3 is_stmt 1 view .LVU135
  44:Src/tim.c     ****   htim1.Init.AutoReloadPreload = TIM_AUTORELOAD_PRELOAD_DISABLE;
 441              		.loc 1 44 32 is_stmt 0 view .LVU136
 442 0030 4461     		str	r4, [r0, #20]
  45:Src/tim.c     ****   if (HAL_TIM_PWM_Init(&htim1) != HAL_OK)
 443              		.loc 1 45 3 is_stmt 1 view .LVU137
  45:Src/tim.c     ****   if (HAL_TIM_PWM_Init(&htim1) != HAL_OK)
 444              		.loc 1 45 32 is_stmt 0 view .LVU138
 445 0032 8461     		str	r4, [r0, #24]
  46:Src/tim.c     ****   {
 446              		.loc 1 46 3 is_stmt 1 view .LVU139
  46:Src/tim.c     ****   {
 447              		.loc 1 46 7 is_stmt 0 view .LVU140
 448 0034 FFF7FEFF 		bl	HAL_TIM_PWM_Init
 449              	.LVL19:
  46:Src/tim.c     ****   {
 450              		.loc 1 46 6 view .LVU141
 451 0038 0028     		cmp	r0, #0
 452 003a 29D1     		bne	.L29
 453              	.L24:
  50:Src/tim.c     ****   sMasterConfig.MasterSlaveMode = TIM_MASTERSLAVEMODE_DISABLE;
 454              		.loc 1 50 3 is_stmt 1 view .LVU142
  50:Src/tim.c     ****   sMasterConfig.MasterSlaveMode = TIM_MASTERSLAVEMODE_DISABLE;
 455              		.loc 1 50 37 is_stmt 0 view .LVU143
 456 003c 0023     		movs	r3, #0
 457 003e 1093     		str	r3, [sp, #64]
  51:Src/tim.c     ****   if (HAL_TIMEx_MasterConfigSynchronization(&htim1, &sMasterConfig) != HAL_OK)
 458              		.loc 1 51 3 is_stmt 1 view .LVU144
  51:Src/tim.c     ****   if (HAL_TIMEx_MasterConfigSynchronization(&htim1, &sMasterConfig) != HAL_OK)
 459              		.loc 1 51 33 is_stmt 0 view .LVU145
 460 0040 1193     		str	r3, [sp, #68]
  52:Src/tim.c     ****   {
 461              		.loc 1 52 3 is_stmt 1 view .LVU146
ARM GAS  C:\Users\ncer\AppData\Local\Temp\ccuX9Zgh.s 			page 16


  52:Src/tim.c     ****   {
 462              		.loc 1 52 7 is_stmt 0 view .LVU147
 463 0042 10A9     		add	r1, sp, #64
 464 0044 1848     		ldr	r0, .L33
 465 0046 FFF7FEFF 		bl	HAL_TIMEx_MasterConfigSynchronization
 466              	.LVL20:
  52:Src/tim.c     ****   {
 467              		.loc 1 52 6 view .LVU148
 468 004a 20BB     		cbnz	r0, .L30
 469              	.L25:
  56:Src/tim.c     ****   sConfigOC.Pulse = 0;
 470              		.loc 1 56 3 is_stmt 1 view .LVU149
  56:Src/tim.c     ****   sConfigOC.Pulse = 0;
 471              		.loc 1 56 20 is_stmt 0 view .LVU150
 472 004c 6023     		movs	r3, #96
 473 004e 0993     		str	r3, [sp, #36]
  57:Src/tim.c     ****   sConfigOC.OCPolarity = TIM_OCPOLARITY_HIGH;
 474              		.loc 1 57 3 is_stmt 1 view .LVU151
  57:Src/tim.c     ****   sConfigOC.OCPolarity = TIM_OCPOLARITY_HIGH;
 475              		.loc 1 57 19 is_stmt 0 view .LVU152
 476 0050 0023     		movs	r3, #0
 477 0052 0A93     		str	r3, [sp, #40]
  58:Src/tim.c     ****   sConfigOC.OCFastMode = TIM_OCFAST_DISABLE;
 478              		.loc 1 58 3 is_stmt 1 view .LVU153
  58:Src/tim.c     ****   sConfigOC.OCFastMode = TIM_OCFAST_DISABLE;
 479              		.loc 1 58 24 is_stmt 0 view .LVU154
 480 0054 0B93     		str	r3, [sp, #44]
  59:Src/tim.c     ****   sConfigOC.OCIdleState = TIM_OCIDLESTATE_RESET;
 481              		.loc 1 59 3 is_stmt 1 view .LVU155
  59:Src/tim.c     ****   sConfigOC.OCIdleState = TIM_OCIDLESTATE_RESET;
 482              		.loc 1 59 24 is_stmt 0 view .LVU156
 483 0056 0D93     		str	r3, [sp, #52]
  60:Src/tim.c     ****   sConfigOC.OCNIdleState = TIM_OCNIDLESTATE_RESET;
 484              		.loc 1 60 3 is_stmt 1 view .LVU157
  60:Src/tim.c     ****   sConfigOC.OCNIdleState = TIM_OCNIDLESTATE_RESET;
 485              		.loc 1 60 25 is_stmt 0 view .LVU158
 486 0058 0E93     		str	r3, [sp, #56]
  61:Src/tim.c     ****   if (HAL_TIM_PWM_ConfigChannel(&htim1, &sConfigOC, TIM_CHANNEL_4) != HAL_OK)
 487              		.loc 1 61 3 is_stmt 1 view .LVU159
  61:Src/tim.c     ****   if (HAL_TIM_PWM_ConfigChannel(&htim1, &sConfigOC, TIM_CHANNEL_4) != HAL_OK)
 488              		.loc 1 61 26 is_stmt 0 view .LVU160
 489 005a 0F93     		str	r3, [sp, #60]
  62:Src/tim.c     ****   {
 490              		.loc 1 62 3 is_stmt 1 view .LVU161
  62:Src/tim.c     ****   {
 491              		.loc 1 62 7 is_stmt 0 view .LVU162
 492 005c 0C22     		movs	r2, #12
 493 005e 09A9     		add	r1, sp, #36
 494 0060 1148     		ldr	r0, .L33
 495 0062 FFF7FEFF 		bl	HAL_TIM_PWM_ConfigChannel
 496              	.LVL21:
  62:Src/tim.c     ****   {
 497              		.loc 1 62 6 view .LVU163
 498 0066 C8B9     		cbnz	r0, .L31
 499              	.L26:
  66:Src/tim.c     ****   sBreakDeadTimeConfig.OffStateIDLEMode = TIM_OSSI_DISABLE;
 500              		.loc 1 66 3 is_stmt 1 view .LVU164
ARM GAS  C:\Users\ncer\AppData\Local\Temp\ccuX9Zgh.s 			page 17


  66:Src/tim.c     ****   sBreakDeadTimeConfig.OffStateIDLEMode = TIM_OSSI_DISABLE;
 501              		.loc 1 66 40 is_stmt 0 view .LVU165
 502 0068 0023     		movs	r3, #0
 503 006a 0193     		str	r3, [sp, #4]
  67:Src/tim.c     ****   sBreakDeadTimeConfig.LockLevel = TIM_LOCKLEVEL_OFF;
 504              		.loc 1 67 3 is_stmt 1 view .LVU166
  67:Src/tim.c     ****   sBreakDeadTimeConfig.LockLevel = TIM_LOCKLEVEL_OFF;
 505              		.loc 1 67 41 is_stmt 0 view .LVU167
 506 006c 0293     		str	r3, [sp, #8]
  68:Src/tim.c     ****   sBreakDeadTimeConfig.DeadTime = 0;
 507              		.loc 1 68 3 is_stmt 1 view .LVU168
  68:Src/tim.c     ****   sBreakDeadTimeConfig.DeadTime = 0;
 508              		.loc 1 68 34 is_stmt 0 view .LVU169
 509 006e 0393     		str	r3, [sp, #12]
  69:Src/tim.c     ****   sBreakDeadTimeConfig.BreakState = TIM_BREAK_DISABLE;
 510              		.loc 1 69 3 is_stmt 1 view .LVU170
  69:Src/tim.c     ****   sBreakDeadTimeConfig.BreakState = TIM_BREAK_DISABLE;
 511              		.loc 1 69 33 is_stmt 0 view .LVU171
 512 0070 0493     		str	r3, [sp, #16]
  70:Src/tim.c     ****   sBreakDeadTimeConfig.BreakPolarity = TIM_BREAKPOLARITY_HIGH;
 513              		.loc 1 70 3 is_stmt 1 view .LVU172
  70:Src/tim.c     ****   sBreakDeadTimeConfig.BreakPolarity = TIM_BREAKPOLARITY_HIGH;
 514              		.loc 1 70 35 is_stmt 0 view .LVU173
 515 0072 0593     		str	r3, [sp, #20]
  71:Src/tim.c     ****   sBreakDeadTimeConfig.AutomaticOutput = TIM_AUTOMATICOUTPUT_DISABLE;
 516              		.loc 1 71 3 is_stmt 1 view .LVU174
  71:Src/tim.c     ****   sBreakDeadTimeConfig.AutomaticOutput = TIM_AUTOMATICOUTPUT_DISABLE;
 517              		.loc 1 71 38 is_stmt 0 view .LVU175
 518 0074 4FF40052 		mov	r2, #8192
 519 0078 0692     		str	r2, [sp, #24]
  72:Src/tim.c     ****   if (HAL_TIMEx_ConfigBreakDeadTime(&htim1, &sBreakDeadTimeConfig) != HAL_OK)
 520              		.loc 1 72 3 is_stmt 1 view .LVU176
  72:Src/tim.c     ****   if (HAL_TIMEx_ConfigBreakDeadTime(&htim1, &sBreakDeadTimeConfig) != HAL_OK)
 521              		.loc 1 72 40 is_stmt 0 view .LVU177
 522 007a 0893     		str	r3, [sp, #32]
  73:Src/tim.c     ****   {
 523              		.loc 1 73 3 is_stmt 1 view .LVU178
  73:Src/tim.c     ****   {
 524              		.loc 1 73 7 is_stmt 0 view .LVU179
 525 007c 01A9     		add	r1, sp, #4
 526 007e 0A48     		ldr	r0, .L33
 527 0080 FFF7FEFF 		bl	HAL_TIMEx_ConfigBreakDeadTime
 528              	.LVL22:
  73:Src/tim.c     ****   {
 529              		.loc 1 73 6 view .LVU180
 530 0084 68B9     		cbnz	r0, .L32
 531              	.L27:
  77:Src/tim.c     **** 
 532              		.loc 1 77 3 is_stmt 1 view .LVU181
 533 0086 0848     		ldr	r0, .L33
 534 0088 FFF7FEFF 		bl	HAL_TIM_MspPostInit
 535              	.LVL23:
  79:Src/tim.c     **** /* TIM2 init function */
 536              		.loc 1 79 1 is_stmt 0 view .LVU182
 537 008c 12B0     		add	sp, sp, #72
 538              	.LCFI10:
 539              		.cfi_remember_state
ARM GAS  C:\Users\ncer\AppData\Local\Temp\ccuX9Zgh.s 			page 18


 540              		.cfi_def_cfa_offset 8
 541              		@ sp needed
 542 008e 10BD     		pop	{r4, pc}
 543              	.L29:
 544              	.LCFI11:
 545              		.cfi_restore_state
  48:Src/tim.c     ****   }
 546              		.loc 1 48 5 is_stmt 1 view .LVU183
 547 0090 FFF7FEFF 		bl	Error_Handler
 548              	.LVL24:
 549 0094 D2E7     		b	.L24
 550              	.L30:
  54:Src/tim.c     ****   }
 551              		.loc 1 54 5 view .LVU184
 552 0096 FFF7FEFF 		bl	Error_Handler
 553              	.LVL25:
 554 009a D7E7     		b	.L25
 555              	.L31:
  64:Src/tim.c     ****   }
 556              		.loc 1 64 5 view .LVU185
 557 009c FFF7FEFF 		bl	Error_Handler
 558              	.LVL26:
 559 00a0 E2E7     		b	.L26
 560              	.L32:
  75:Src/tim.c     ****   }
 561              		.loc 1 75 5 view .LVU186
 562 00a2 FFF7FEFF 		bl	Error_Handler
 563              	.LVL27:
 564 00a6 EEE7     		b	.L27
 565              	.L34:
 566              		.align	2
 567              	.L33:
 568 00a8 00000000 		.word	htim1
 569 00ac 002C0140 		.word	1073818624
 570              		.cfi_endproc
 571              	.LFE65:
 573              		.section	.text.MX_TIM2_Init,"ax",%progbits
 574              		.align	1
 575              		.global	MX_TIM2_Init
 576              		.syntax unified
 577              		.thumb
 578              		.thumb_func
 579              		.fpu softvfp
 581              	MX_TIM2_Init:
 582              	.LFB66:
  82:Src/tim.c     ****   TIM_MasterConfigTypeDef sMasterConfig = {0};
 583              		.loc 1 82 1 view -0
 584              		.cfi_startproc
 585              		@ args = 0, pretend = 0, frame = 40
 586              		@ frame_needed = 0, uses_anonymous_args = 0
 587 0000 00B5     		push	{lr}
 588              	.LCFI12:
 589              		.cfi_def_cfa_offset 4
 590              		.cfi_offset 14, -4
 591 0002 8BB0     		sub	sp, sp, #44
 592              	.LCFI13:
 593              		.cfi_def_cfa_offset 48
ARM GAS  C:\Users\ncer\AppData\Local\Temp\ccuX9Zgh.s 			page 19


  83:Src/tim.c     ****   TIM_OC_InitTypeDef sConfigOC = {0};
 594              		.loc 1 83 3 view .LVU188
  83:Src/tim.c     ****   TIM_OC_InitTypeDef sConfigOC = {0};
 595              		.loc 1 83 27 is_stmt 0 view .LVU189
 596 0004 0023     		movs	r3, #0
 597 0006 0893     		str	r3, [sp, #32]
 598 0008 0993     		str	r3, [sp, #36]
  84:Src/tim.c     **** 
 599              		.loc 1 84 3 is_stmt 1 view .LVU190
  84:Src/tim.c     **** 
 600              		.loc 1 84 22 is_stmt 0 view .LVU191
 601 000a 0193     		str	r3, [sp, #4]
 602 000c 0293     		str	r3, [sp, #8]
 603 000e 0393     		str	r3, [sp, #12]
 604 0010 0493     		str	r3, [sp, #16]
 605 0012 0593     		str	r3, [sp, #20]
 606 0014 0693     		str	r3, [sp, #24]
 607 0016 0793     		str	r3, [sp, #28]
  86:Src/tim.c     ****   htim2.Init.Prescaler = 9;
 608              		.loc 1 86 3 is_stmt 1 view .LVU192
  86:Src/tim.c     ****   htim2.Init.Prescaler = 9;
 609              		.loc 1 86 18 is_stmt 0 view .LVU193
 610 0018 1D48     		ldr	r0, .L45
 611 001a 4FF08042 		mov	r2, #1073741824
 612 001e 0260     		str	r2, [r0]
  87:Src/tim.c     ****   htim2.Init.CounterMode = TIM_COUNTERMODE_UP;
 613              		.loc 1 87 3 is_stmt 1 view .LVU194
  87:Src/tim.c     ****   htim2.Init.CounterMode = TIM_COUNTERMODE_UP;
 614              		.loc 1 87 24 is_stmt 0 view .LVU195
 615 0020 0922     		movs	r2, #9
 616 0022 4260     		str	r2, [r0, #4]
  88:Src/tim.c     ****   htim2.Init.Period = 15999;
 617              		.loc 1 88 3 is_stmt 1 view .LVU196
  88:Src/tim.c     ****   htim2.Init.Period = 15999;
 618              		.loc 1 88 26 is_stmt 0 view .LVU197
 619 0024 8360     		str	r3, [r0, #8]
  89:Src/tim.c     ****   htim2.Init.ClockDivision = TIM_CLOCKDIVISION_DIV1;
 620              		.loc 1 89 3 is_stmt 1 view .LVU198
  89:Src/tim.c     ****   htim2.Init.ClockDivision = TIM_CLOCKDIVISION_DIV1;
 621              		.loc 1 89 21 is_stmt 0 view .LVU199
 622 0026 43F67F62 		movw	r2, #15999
 623 002a C260     		str	r2, [r0, #12]
  90:Src/tim.c     ****   htim2.Init.AutoReloadPreload = TIM_AUTORELOAD_PRELOAD_DISABLE;
 624              		.loc 1 90 3 is_stmt 1 view .LVU200
  90:Src/tim.c     ****   htim2.Init.AutoReloadPreload = TIM_AUTORELOAD_PRELOAD_DISABLE;
 625              		.loc 1 90 28 is_stmt 0 view .LVU201
 626 002c 0361     		str	r3, [r0, #16]
  91:Src/tim.c     ****   if (HAL_TIM_PWM_Init(&htim2) != HAL_OK)
 627              		.loc 1 91 3 is_stmt 1 view .LVU202
  91:Src/tim.c     ****   if (HAL_TIM_PWM_Init(&htim2) != HAL_OK)
 628              		.loc 1 91 32 is_stmt 0 view .LVU203
 629 002e 8361     		str	r3, [r0, #24]
  92:Src/tim.c     ****   {
 630              		.loc 1 92 3 is_stmt 1 view .LVU204
  92:Src/tim.c     ****   {
 631              		.loc 1 92 7 is_stmt 0 view .LVU205
 632 0030 FFF7FEFF 		bl	HAL_TIM_PWM_Init
ARM GAS  C:\Users\ncer\AppData\Local\Temp\ccuX9Zgh.s 			page 20


 633              	.LVL28:
  92:Src/tim.c     ****   {
 634              		.loc 1 92 6 view .LVU206
 635 0034 F8B9     		cbnz	r0, .L41
 636              	.L36:
  96:Src/tim.c     ****   sMasterConfig.MasterSlaveMode = TIM_MASTERSLAVEMODE_DISABLE;
 637              		.loc 1 96 3 is_stmt 1 view .LVU207
  96:Src/tim.c     ****   sMasterConfig.MasterSlaveMode = TIM_MASTERSLAVEMODE_DISABLE;
 638              		.loc 1 96 37 is_stmt 0 view .LVU208
 639 0036 0023     		movs	r3, #0
 640 0038 0893     		str	r3, [sp, #32]
  97:Src/tim.c     ****   if (HAL_TIMEx_MasterConfigSynchronization(&htim2, &sMasterConfig) != HAL_OK)
 641              		.loc 1 97 3 is_stmt 1 view .LVU209
  97:Src/tim.c     ****   if (HAL_TIMEx_MasterConfigSynchronization(&htim2, &sMasterConfig) != HAL_OK)
 642              		.loc 1 97 33 is_stmt 0 view .LVU210
 643 003a 0993     		str	r3, [sp, #36]
  98:Src/tim.c     ****   {
 644              		.loc 1 98 3 is_stmt 1 view .LVU211
  98:Src/tim.c     ****   {
 645              		.loc 1 98 7 is_stmt 0 view .LVU212
 646 003c 08A9     		add	r1, sp, #32
 647 003e 1448     		ldr	r0, .L45
 648 0040 FFF7FEFF 		bl	HAL_TIMEx_MasterConfigSynchronization
 649              	.LVL29:
  98:Src/tim.c     ****   {
 650              		.loc 1 98 6 view .LVU213
 651 0044 D0B9     		cbnz	r0, .L42
 652              	.L37:
 102:Src/tim.c     ****   sConfigOC.Pulse = 0;
 653              		.loc 1 102 3 is_stmt 1 view .LVU214
 102:Src/tim.c     ****   sConfigOC.Pulse = 0;
 654              		.loc 1 102 20 is_stmt 0 view .LVU215
 655 0046 6023     		movs	r3, #96
 656 0048 0193     		str	r3, [sp, #4]
 103:Src/tim.c     ****   sConfigOC.OCPolarity = TIM_OCPOLARITY_HIGH;
 657              		.loc 1 103 3 is_stmt 1 view .LVU216
 103:Src/tim.c     ****   sConfigOC.OCPolarity = TIM_OCPOLARITY_HIGH;
 658              		.loc 1 103 19 is_stmt 0 view .LVU217
 659 004a 0022     		movs	r2, #0
 660 004c 0292     		str	r2, [sp, #8]
 104:Src/tim.c     ****   sConfigOC.OCFastMode = TIM_OCFAST_DISABLE;
 661              		.loc 1 104 3 is_stmt 1 view .LVU218
 104:Src/tim.c     ****   sConfigOC.OCFastMode = TIM_OCFAST_DISABLE;
 662              		.loc 1 104 24 is_stmt 0 view .LVU219
 663 004e 0392     		str	r2, [sp, #12]
 105:Src/tim.c     ****   if (HAL_TIM_PWM_ConfigChannel(&htim2, &sConfigOC, TIM_CHANNEL_1) != HAL_OK)
 664              		.loc 1 105 3 is_stmt 1 view .LVU220
 105:Src/tim.c     ****   if (HAL_TIM_PWM_ConfigChannel(&htim2, &sConfigOC, TIM_CHANNEL_1) != HAL_OK)
 665              		.loc 1 105 24 is_stmt 0 view .LVU221
 666 0050 0592     		str	r2, [sp, #20]
 106:Src/tim.c     ****   {
 667              		.loc 1 106 3 is_stmt 1 view .LVU222
 106:Src/tim.c     ****   {
 668              		.loc 1 106 7 is_stmt 0 view .LVU223
 669 0052 01A9     		add	r1, sp, #4
 670 0054 0E48     		ldr	r0, .L45
 671 0056 FFF7FEFF 		bl	HAL_TIM_PWM_ConfigChannel
ARM GAS  C:\Users\ncer\AppData\Local\Temp\ccuX9Zgh.s 			page 21


 672              	.LVL30:
 106:Src/tim.c     ****   {
 673              		.loc 1 106 6 view .LVU224
 674 005a 90B9     		cbnz	r0, .L43
 675              	.L38:
 110:Src/tim.c     ****   {
 676              		.loc 1 110 3 is_stmt 1 view .LVU225
 110:Src/tim.c     ****   {
 677              		.loc 1 110 7 is_stmt 0 view .LVU226
 678 005c 0422     		movs	r2, #4
 679 005e 0DEB0201 		add	r1, sp, r2
 680 0062 0B48     		ldr	r0, .L45
 681 0064 FFF7FEFF 		bl	HAL_TIM_PWM_ConfigChannel
 682              	.LVL31:
 110:Src/tim.c     ****   {
 683              		.loc 1 110 6 view .LVU227
 684 0068 70B9     		cbnz	r0, .L44
 685              	.L39:
 114:Src/tim.c     **** 
 686              		.loc 1 114 3 is_stmt 1 view .LVU228
 687 006a 0948     		ldr	r0, .L45
 688 006c FFF7FEFF 		bl	HAL_TIM_MspPostInit
 689              	.LVL32:
 116:Src/tim.c     **** /* TIM3 init function */
 690              		.loc 1 116 1 is_stmt 0 view .LVU229
 691 0070 0BB0     		add	sp, sp, #44
 692              	.LCFI14:
 693              		.cfi_remember_state
 694              		.cfi_def_cfa_offset 4
 695              		@ sp needed
 696 0072 5DF804FB 		ldr	pc, [sp], #4
 697              	.L41:
 698              	.LCFI15:
 699              		.cfi_restore_state
  94:Src/tim.c     ****   }
 700              		.loc 1 94 5 is_stmt 1 view .LVU230
 701 0076 FFF7FEFF 		bl	Error_Handler
 702              	.LVL33:
 703 007a DCE7     		b	.L36
 704              	.L42:
 100:Src/tim.c     ****   }
 705              		.loc 1 100 5 view .LVU231
 706 007c FFF7FEFF 		bl	Error_Handler
 707              	.LVL34:
 708 0080 E1E7     		b	.L37
 709              	.L43:
 108:Src/tim.c     ****   }
 710              		.loc 1 108 5 view .LVU232
 711 0082 FFF7FEFF 		bl	Error_Handler
 712              	.LVL35:
 713 0086 E9E7     		b	.L38
 714              	.L44:
 112:Src/tim.c     ****   }
 715              		.loc 1 112 5 view .LVU233
 716 0088 FFF7FEFF 		bl	Error_Handler
 717              	.LVL36:
 718 008c EDE7     		b	.L39
ARM GAS  C:\Users\ncer\AppData\Local\Temp\ccuX9Zgh.s 			page 22


 719              	.L46:
 720 008e 00BF     		.align	2
 721              	.L45:
 722 0090 00000000 		.word	htim2
 723              		.cfi_endproc
 724              	.LFE66:
 726              		.section	.text.MX_TIM3_Init,"ax",%progbits
 727              		.align	1
 728              		.global	MX_TIM3_Init
 729              		.syntax unified
 730              		.thumb
 731              		.thumb_func
 732              		.fpu softvfp
 734              	MX_TIM3_Init:
 735              	.LFB67:
 119:Src/tim.c     ****   TIM_MasterConfigTypeDef sMasterConfig = {0};
 736              		.loc 1 119 1 view -0
 737              		.cfi_startproc
 738              		@ args = 0, pretend = 0, frame = 40
 739              		@ frame_needed = 0, uses_anonymous_args = 0
 740 0000 00B5     		push	{lr}
 741              	.LCFI16:
 742              		.cfi_def_cfa_offset 4
 743              		.cfi_offset 14, -4
 744 0002 8BB0     		sub	sp, sp, #44
 745              	.LCFI17:
 746              		.cfi_def_cfa_offset 48
 120:Src/tim.c     ****   TIM_OC_InitTypeDef sConfigOC = {0};
 747              		.loc 1 120 3 view .LVU235
 120:Src/tim.c     ****   TIM_OC_InitTypeDef sConfigOC = {0};
 748              		.loc 1 120 27 is_stmt 0 view .LVU236
 749 0004 0023     		movs	r3, #0
 750 0006 0893     		str	r3, [sp, #32]
 751 0008 0993     		str	r3, [sp, #36]
 121:Src/tim.c     **** 
 752              		.loc 1 121 3 is_stmt 1 view .LVU237
 121:Src/tim.c     **** 
 753              		.loc 1 121 22 is_stmt 0 view .LVU238
 754 000a 0193     		str	r3, [sp, #4]
 755 000c 0293     		str	r3, [sp, #8]
 756 000e 0393     		str	r3, [sp, #12]
 757 0010 0493     		str	r3, [sp, #16]
 758 0012 0593     		str	r3, [sp, #20]
 759 0014 0693     		str	r3, [sp, #24]
 760 0016 0793     		str	r3, [sp, #28]
 123:Src/tim.c     ****   htim3.Init.Prescaler = 9;
 761              		.loc 1 123 3 is_stmt 1 view .LVU239
 123:Src/tim.c     ****   htim3.Init.Prescaler = 9;
 762              		.loc 1 123 18 is_stmt 0 view .LVU240
 763 0018 1C48     		ldr	r0, .L57
 764 001a 1D4A     		ldr	r2, .L57+4
 765 001c 0260     		str	r2, [r0]
 124:Src/tim.c     ****   htim3.Init.CounterMode = TIM_COUNTERMODE_UP;
 766              		.loc 1 124 3 is_stmt 1 view .LVU241
 124:Src/tim.c     ****   htim3.Init.CounterMode = TIM_COUNTERMODE_UP;
 767              		.loc 1 124 24 is_stmt 0 view .LVU242
 768 001e 0922     		movs	r2, #9
ARM GAS  C:\Users\ncer\AppData\Local\Temp\ccuX9Zgh.s 			page 23


 769 0020 4260     		str	r2, [r0, #4]
 125:Src/tim.c     ****   htim3.Init.Period = 15999;
 770              		.loc 1 125 3 is_stmt 1 view .LVU243
 125:Src/tim.c     ****   htim3.Init.Period = 15999;
 771              		.loc 1 125 26 is_stmt 0 view .LVU244
 772 0022 8360     		str	r3, [r0, #8]
 126:Src/tim.c     ****   htim3.Init.ClockDivision = TIM_CLOCKDIVISION_DIV1;
 773              		.loc 1 126 3 is_stmt 1 view .LVU245
 126:Src/tim.c     ****   htim3.Init.ClockDivision = TIM_CLOCKDIVISION_DIV1;
 774              		.loc 1 126 21 is_stmt 0 view .LVU246
 775 0024 43F67F62 		movw	r2, #15999
 776 0028 C260     		str	r2, [r0, #12]
 127:Src/tim.c     ****   htim3.Init.AutoReloadPreload = TIM_AUTORELOAD_PRELOAD_DISABLE;
 777              		.loc 1 127 3 is_stmt 1 view .LVU247
 127:Src/tim.c     ****   htim3.Init.AutoReloadPreload = TIM_AUTORELOAD_PRELOAD_DISABLE;
 778              		.loc 1 127 28 is_stmt 0 view .LVU248
 779 002a 0361     		str	r3, [r0, #16]
 128:Src/tim.c     ****   if (HAL_TIM_PWM_Init(&htim3) != HAL_OK)
 780              		.loc 1 128 3 is_stmt 1 view .LVU249
 128:Src/tim.c     ****   if (HAL_TIM_PWM_Init(&htim3) != HAL_OK)
 781              		.loc 1 128 32 is_stmt 0 view .LVU250
 782 002c 8361     		str	r3, [r0, #24]
 129:Src/tim.c     ****   {
 783              		.loc 1 129 3 is_stmt 1 view .LVU251
 129:Src/tim.c     ****   {
 784              		.loc 1 129 7 is_stmt 0 view .LVU252
 785 002e FFF7FEFF 		bl	HAL_TIM_PWM_Init
 786              	.LVL37:
 129:Src/tim.c     ****   {
 787              		.loc 1 129 6 view .LVU253
 788 0032 F8B9     		cbnz	r0, .L53
 789              	.L48:
 133:Src/tim.c     ****   sMasterConfig.MasterSlaveMode = TIM_MASTERSLAVEMODE_DISABLE;
 790              		.loc 1 133 3 is_stmt 1 view .LVU254
 133:Src/tim.c     ****   sMasterConfig.MasterSlaveMode = TIM_MASTERSLAVEMODE_DISABLE;
 791              		.loc 1 133 37 is_stmt 0 view .LVU255
 792 0034 0023     		movs	r3, #0
 793 0036 0893     		str	r3, [sp, #32]
 134:Src/tim.c     ****   if (HAL_TIMEx_MasterConfigSynchronization(&htim3, &sMasterConfig) != HAL_OK)
 794              		.loc 1 134 3 is_stmt 1 view .LVU256
 134:Src/tim.c     ****   if (HAL_TIMEx_MasterConfigSynchronization(&htim3, &sMasterConfig) != HAL_OK)
 795              		.loc 1 134 33 is_stmt 0 view .LVU257
 796 0038 0993     		str	r3, [sp, #36]
 135:Src/tim.c     ****   {
 797              		.loc 1 135 3 is_stmt 1 view .LVU258
 135:Src/tim.c     ****   {
 798              		.loc 1 135 7 is_stmt 0 view .LVU259
 799 003a 08A9     		add	r1, sp, #32
 800 003c 1348     		ldr	r0, .L57
 801 003e FFF7FEFF 		bl	HAL_TIMEx_MasterConfigSynchronization
 802              	.LVL38:
 135:Src/tim.c     ****   {
 803              		.loc 1 135 6 view .LVU260
 804 0042 D0B9     		cbnz	r0, .L54
 805              	.L49:
 139:Src/tim.c     ****   sConfigOC.Pulse = 0;
 806              		.loc 1 139 3 is_stmt 1 view .LVU261
ARM GAS  C:\Users\ncer\AppData\Local\Temp\ccuX9Zgh.s 			page 24


 139:Src/tim.c     ****   sConfigOC.Pulse = 0;
 807              		.loc 1 139 20 is_stmt 0 view .LVU262
 808 0044 6023     		movs	r3, #96
 809 0046 0193     		str	r3, [sp, #4]
 140:Src/tim.c     ****   sConfigOC.OCPolarity = TIM_OCPOLARITY_HIGH;
 810              		.loc 1 140 3 is_stmt 1 view .LVU263
 140:Src/tim.c     ****   sConfigOC.OCPolarity = TIM_OCPOLARITY_HIGH;
 811              		.loc 1 140 19 is_stmt 0 view .LVU264
 812 0048 0023     		movs	r3, #0
 813 004a 0293     		str	r3, [sp, #8]
 141:Src/tim.c     ****   sConfigOC.OCFastMode = TIM_OCFAST_DISABLE;
 814              		.loc 1 141 3 is_stmt 1 view .LVU265
 141:Src/tim.c     ****   sConfigOC.OCFastMode = TIM_OCFAST_DISABLE;
 815              		.loc 1 141 24 is_stmt 0 view .LVU266
 816 004c 0393     		str	r3, [sp, #12]
 142:Src/tim.c     ****   if (HAL_TIM_PWM_ConfigChannel(&htim3, &sConfigOC, TIM_CHANNEL_3) != HAL_OK)
 817              		.loc 1 142 3 is_stmt 1 view .LVU267
 142:Src/tim.c     ****   if (HAL_TIM_PWM_ConfigChannel(&htim3, &sConfigOC, TIM_CHANNEL_3) != HAL_OK)
 818              		.loc 1 142 24 is_stmt 0 view .LVU268
 819 004e 0593     		str	r3, [sp, #20]
 143:Src/tim.c     ****   {
 820              		.loc 1 143 3 is_stmt 1 view .LVU269
 143:Src/tim.c     ****   {
 821              		.loc 1 143 7 is_stmt 0 view .LVU270
 822 0050 0822     		movs	r2, #8
 823 0052 01A9     		add	r1, sp, #4
 824 0054 0D48     		ldr	r0, .L57
 825 0056 FFF7FEFF 		bl	HAL_TIM_PWM_ConfigChannel
 826              	.LVL39:
 143:Src/tim.c     ****   {
 827              		.loc 1 143 6 view .LVU271
 828 005a 88B9     		cbnz	r0, .L55
 829              	.L50:
 147:Src/tim.c     ****   {
 830              		.loc 1 147 3 is_stmt 1 view .LVU272
 147:Src/tim.c     ****   {
 831              		.loc 1 147 7 is_stmt 0 view .LVU273
 832 005c 0C22     		movs	r2, #12
 833 005e 01A9     		add	r1, sp, #4
 834 0060 0A48     		ldr	r0, .L57
 835 0062 FFF7FEFF 		bl	HAL_TIM_PWM_ConfigChannel
 836              	.LVL40:
 147:Src/tim.c     ****   {
 837              		.loc 1 147 6 view .LVU274
 838 0066 70B9     		cbnz	r0, .L56
 839              	.L51:
 151:Src/tim.c     **** 
 840              		.loc 1 151 3 is_stmt 1 view .LVU275
 841 0068 0848     		ldr	r0, .L57
 842 006a FFF7FEFF 		bl	HAL_TIM_MspPostInit
 843              	.LVL41:
 153:Src/tim.c     **** 
 844              		.loc 1 153 1 is_stmt 0 view .LVU276
 845 006e 0BB0     		add	sp, sp, #44
 846              	.LCFI18:
 847              		.cfi_remember_state
 848              		.cfi_def_cfa_offset 4
ARM GAS  C:\Users\ncer\AppData\Local\Temp\ccuX9Zgh.s 			page 25


 849              		@ sp needed
 850 0070 5DF804FB 		ldr	pc, [sp], #4
 851              	.L53:
 852              	.LCFI19:
 853              		.cfi_restore_state
 131:Src/tim.c     ****   }
 854              		.loc 1 131 5 is_stmt 1 view .LVU277
 855 0074 FFF7FEFF 		bl	Error_Handler
 856              	.LVL42:
 857 0078 DCE7     		b	.L48
 858              	.L54:
 137:Src/tim.c     ****   }
 859              		.loc 1 137 5 view .LVU278
 860 007a FFF7FEFF 		bl	Error_Handler
 861              	.LVL43:
 862 007e E1E7     		b	.L49
 863              	.L55:
 145:Src/tim.c     ****   }
 864              		.loc 1 145 5 view .LVU279
 865 0080 FFF7FEFF 		bl	Error_Handler
 866              	.LVL44:
 867 0084 EAE7     		b	.L50
 868              	.L56:
 149:Src/tim.c     ****   }
 869              		.loc 1 149 5 view .LVU280
 870 0086 FFF7FEFF 		bl	Error_Handler
 871              	.LVL45:
 872 008a EDE7     		b	.L51
 873              	.L58:
 874              		.align	2
 875              	.L57:
 876 008c 00000000 		.word	htim3
 877 0090 00040040 		.word	1073742848
 878              		.cfi_endproc
 879              	.LFE67:
 881              		.section	.text.HAL_TIM_PWM_MspDeInit,"ax",%progbits
 882              		.align	1
 883              		.global	HAL_TIM_PWM_MspDeInit
 884              		.syntax unified
 885              		.thumb
 886              		.thumb_func
 887              		.fpu softvfp
 889              	HAL_TIM_PWM_MspDeInit:
 890              	.LVL46:
 891              	.LFB70:
 278:Src/tim.c     **** 
 279:Src/tim.c     **** void HAL_TIM_PWM_MspDeInit(TIM_HandleTypeDef* tim_pwmHandle)
 280:Src/tim.c     **** {
 892              		.loc 1 280 1 view -0
 893              		.cfi_startproc
 894              		@ args = 0, pretend = 0, frame = 0
 895              		@ frame_needed = 0, uses_anonymous_args = 0
 281:Src/tim.c     **** 
 282:Src/tim.c     ****   if(tim_pwmHandle->Instance==TIM1)
 896              		.loc 1 282 3 view .LVU282
 897              		.loc 1 282 19 is_stmt 0 view .LVU283
 898 0000 0368     		ldr	r3, [r0]
ARM GAS  C:\Users\ncer\AppData\Local\Temp\ccuX9Zgh.s 			page 26


 899              		.loc 1 282 5 view .LVU284
 900 0002 144A     		ldr	r2, .L70
 901 0004 9342     		cmp	r3, r2
 902 0006 06D0     		beq	.L67
 283:Src/tim.c     ****   {
 284:Src/tim.c     ****   /* USER CODE BEGIN TIM1_MspDeInit 0 */
 285:Src/tim.c     **** 
 286:Src/tim.c     ****   /* USER CODE END TIM1_MspDeInit 0 */
 287:Src/tim.c     ****     /* Peripheral clock disable */
 288:Src/tim.c     ****     __HAL_RCC_TIM1_CLK_DISABLE();
 289:Src/tim.c     **** 
 290:Src/tim.c     ****     /* TIM1 DMA DeInit */
 291:Src/tim.c     ****     HAL_DMA_DeInit(tim_pwmHandle->hdma[TIM_DMA_ID_CC4]);
 292:Src/tim.c     ****     HAL_DMA_DeInit(tim_pwmHandle->hdma[TIM_DMA_ID_TRIGGER]);
 293:Src/tim.c     ****     HAL_DMA_DeInit(tim_pwmHandle->hdma[TIM_DMA_ID_COMMUTATION]);
 294:Src/tim.c     ****   /* USER CODE BEGIN TIM1_MspDeInit 1 */
 295:Src/tim.c     **** 
 296:Src/tim.c     ****   /* USER CODE END TIM1_MspDeInit 1 */
 297:Src/tim.c     ****   }
 298:Src/tim.c     ****   else if(tim_pwmHandle->Instance==TIM2)
 903              		.loc 1 298 8 is_stmt 1 view .LVU285
 904              		.loc 1 298 10 is_stmt 0 view .LVU286
 905 0008 B3F1804F 		cmp	r3, #1073741824
 906 000c 15D0     		beq	.L68
 299:Src/tim.c     ****   {
 300:Src/tim.c     ****   /* USER CODE BEGIN TIM2_MspDeInit 0 */
 301:Src/tim.c     **** 
 302:Src/tim.c     ****   /* USER CODE END TIM2_MspDeInit 0 */
 303:Src/tim.c     ****     /* Peripheral clock disable */
 304:Src/tim.c     ****     __HAL_RCC_TIM2_CLK_DISABLE();
 305:Src/tim.c     ****   /* USER CODE BEGIN TIM2_MspDeInit 1 */
 306:Src/tim.c     **** 
 307:Src/tim.c     ****   /* USER CODE END TIM2_MspDeInit 1 */
 308:Src/tim.c     ****   }
 309:Src/tim.c     ****   else if(tim_pwmHandle->Instance==TIM3)
 907              		.loc 1 309 8 is_stmt 1 view .LVU287
 908              		.loc 1 309 10 is_stmt 0 view .LVU288
 909 000e 124A     		ldr	r2, .L70+4
 910 0010 9342     		cmp	r3, r2
 911 0012 18D0     		beq	.L69
 912 0014 7047     		bx	lr
 913              	.L67:
 280:Src/tim.c     **** 
 914              		.loc 1 280 1 view .LVU289
 915 0016 10B5     		push	{r4, lr}
 916              	.LCFI20:
 917              		.cfi_def_cfa_offset 8
 918              		.cfi_offset 4, -8
 919              		.cfi_offset 14, -4
 920 0018 0446     		mov	r4, r0
 288:Src/tim.c     **** 
 921              		.loc 1 288 5 is_stmt 1 view .LVU290
 922 001a 02F56442 		add	r2, r2, #58368
 923 001e 9369     		ldr	r3, [r2, #24]
 924 0020 23F40063 		bic	r3, r3, #2048
 925 0024 9361     		str	r3, [r2, #24]
 291:Src/tim.c     ****     HAL_DMA_DeInit(tim_pwmHandle->hdma[TIM_DMA_ID_TRIGGER]);
ARM GAS  C:\Users\ncer\AppData\Local\Temp\ccuX9Zgh.s 			page 27


 926              		.loc 1 291 5 view .LVU291
 927 0026 006B     		ldr	r0, [r0, #48]
 928              	.LVL47:
 291:Src/tim.c     ****     HAL_DMA_DeInit(tim_pwmHandle->hdma[TIM_DMA_ID_TRIGGER]);
 929              		.loc 1 291 5 is_stmt 0 view .LVU292
 930 0028 FFF7FEFF 		bl	HAL_DMA_DeInit
 931              	.LVL48:
 292:Src/tim.c     ****     HAL_DMA_DeInit(tim_pwmHandle->hdma[TIM_DMA_ID_COMMUTATION]);
 932              		.loc 1 292 5 is_stmt 1 view .LVU293
 933 002c A06B     		ldr	r0, [r4, #56]
 934 002e FFF7FEFF 		bl	HAL_DMA_DeInit
 935              	.LVL49:
 293:Src/tim.c     ****   /* USER CODE BEGIN TIM1_MspDeInit 1 */
 936              		.loc 1 293 5 view .LVU294
 937 0032 606B     		ldr	r0, [r4, #52]
 938 0034 FFF7FEFF 		bl	HAL_DMA_DeInit
 939              	.LVL50:
 310:Src/tim.c     ****   {
 311:Src/tim.c     ****   /* USER CODE BEGIN TIM3_MspDeInit 0 */
 312:Src/tim.c     **** 
 313:Src/tim.c     ****   /* USER CODE END TIM3_MspDeInit 0 */
 314:Src/tim.c     ****     /* Peripheral clock disable */
 315:Src/tim.c     ****     __HAL_RCC_TIM3_CLK_DISABLE();
 316:Src/tim.c     ****   /* USER CODE BEGIN TIM3_MspDeInit 1 */
 317:Src/tim.c     **** 
 318:Src/tim.c     ****   /* USER CODE END TIM3_MspDeInit 1 */
 319:Src/tim.c     ****   }
 320:Src/tim.c     **** } 
 940              		.loc 1 320 1 is_stmt 0 view .LVU295
 941 0038 10BD     		pop	{r4, pc}
 942              	.LVL51:
 943              	.L68:
 944              	.LCFI21:
 945              		.cfi_def_cfa_offset 0
 946              		.cfi_restore 4
 947              		.cfi_restore 14
 304:Src/tim.c     ****   /* USER CODE BEGIN TIM2_MspDeInit 1 */
 948              		.loc 1 304 5 is_stmt 1 view .LVU296
 949 003a 084A     		ldr	r2, .L70+8
 950 003c D369     		ldr	r3, [r2, #28]
 951 003e 23F00103 		bic	r3, r3, #1
 952 0042 D361     		str	r3, [r2, #28]
 953 0044 7047     		bx	lr
 954              	.L69:
 315:Src/tim.c     ****   /* USER CODE BEGIN TIM3_MspDeInit 1 */
 955              		.loc 1 315 5 view .LVU297
 956 0046 02F50332 		add	r2, r2, #134144
 957 004a D369     		ldr	r3, [r2, #28]
 958 004c 23F00203 		bic	r3, r3, #2
 959 0050 D361     		str	r3, [r2, #28]
 960              		.loc 1 320 1 is_stmt 0 view .LVU298
 961 0052 7047     		bx	lr
 962              	.L71:
 963              		.align	2
 964              	.L70:
 965 0054 002C0140 		.word	1073818624
 966 0058 00040040 		.word	1073742848
ARM GAS  C:\Users\ncer\AppData\Local\Temp\ccuX9Zgh.s 			page 28


 967 005c 00100240 		.word	1073876992
 968              		.cfi_endproc
 969              	.LFE70:
 971              		.section	.text.ESC_Set_Range,"ax",%progbits
 972              		.align	1
 973              		.global	ESC_Set_Range
 974              		.syntax unified
 975              		.thumb
 976              		.thumb_func
 977              		.fpu softvfp
 979              	ESC_Set_Range:
 980              	.LVL52:
 981              	.LFB71:
 321:Src/tim.c     **** 
 322:Src/tim.c     **** /* USER CODE BEGIN 1 */
 323:Src/tim.c     **** void ESC_Set_Range(int low,int high){
 982              		.loc 1 323 37 is_stmt 1 view -0
 983              		.cfi_startproc
 984              		@ args = 0, pretend = 0, frame = 0
 985              		@ frame_needed = 0, uses_anonymous_args = 0
 986              		.loc 1 323 37 is_stmt 0 view .LVU300
 987 0000 38B5     		push	{r3, r4, r5, lr}
 988              	.LCFI22:
 989              		.cfi_def_cfa_offset 16
 990              		.cfi_offset 3, -16
 991              		.cfi_offset 4, -12
 992              		.cfi_offset 5, -8
 993              		.cfi_offset 14, -4
 994 0002 0546     		mov	r5, r0
 324:Src/tim.c     ****   TIM3->CCR3=high;
 995              		.loc 1 324 3 is_stmt 1 view .LVU301
 996              		.loc 1 324 13 is_stmt 0 view .LVU302
 997 0004 064C     		ldr	r4, .L74
 998 0006 E163     		str	r1, [r4, #60]
 325:Src/tim.c     ****   TIM3->CCR4=high;
 999              		.loc 1 325 3 is_stmt 1 view .LVU303
 1000              		.loc 1 325 13 is_stmt 0 view .LVU304
 1001 0008 2164     		str	r1, [r4, #64]
 326:Src/tim.c     **** 
 327:Src/tim.c     ****   HAL_Delay(1000);
 1002              		.loc 1 327 3 is_stmt 1 view .LVU305
 1003 000a 4FF47A70 		mov	r0, #1000
 1004              	.LVL53:
 1005              		.loc 1 327 3 is_stmt 0 view .LVU306
 1006 000e FFF7FEFF 		bl	HAL_Delay
 1007              	.LVL54:
 328:Src/tim.c     **** 
 329:Src/tim.c     ****   TIM3->CCR3=low;
 1008              		.loc 1 329 3 is_stmt 1 view .LVU307
 1009              		.loc 1 329 13 is_stmt 0 view .LVU308
 1010 0012 E563     		str	r5, [r4, #60]
 330:Src/tim.c     ****   TIM3->CCR4=low;
 1011              		.loc 1 330 3 is_stmt 1 view .LVU309
 1012              		.loc 1 330 13 is_stmt 0 view .LVU310
 1013 0014 2564     		str	r5, [r4, #64]
 331:Src/tim.c     **** 
 332:Src/tim.c     ****   HAL_Delay(1000);
ARM GAS  C:\Users\ncer\AppData\Local\Temp\ccuX9Zgh.s 			page 29


 1014              		.loc 1 332 3 is_stmt 1 view .LVU311
 1015 0016 4FF47A70 		mov	r0, #1000
 1016 001a FFF7FEFF 		bl	HAL_Delay
 1017              	.LVL55:
 333:Src/tim.c     **** }
 1018              		.loc 1 333 1 is_stmt 0 view .LVU312
 1019 001e 38BD     		pop	{r3, r4, r5, pc}
 1020              	.LVL56:
 1021              	.L75:
 1022              		.loc 1 333 1 view .LVU313
 1023              		.align	2
 1024              	.L74:
 1025 0020 00040040 		.word	1073742848
 1026              		.cfi_endproc
 1027              	.LFE71:
 1029              		.section	.text.Caculate_Cnt,"ax",%progbits
 1030              		.align	1
 1031              		.global	Caculate_Cnt
 1032              		.syntax unified
 1033              		.thumb
 1034              		.thumb_func
 1035              		.fpu softvfp
 1037              	Caculate_Cnt:
 1038              	.LVL57:
 1039              	.LFB72:
 334:Src/tim.c     **** 
 335:Src/tim.c     **** int Caculate_Cnt(TIM_HandleTypeDef * htim,uint8_t pclk,int width){
 1040              		.loc 1 335 66 is_stmt 1 view -0
 1041              		.cfi_startproc
 1042              		@ args = 0, pretend = 0, frame = 0
 1043              		@ frame_needed = 0, uses_anonymous_args = 0
 1044              		@ link register save eliminated.
 336:Src/tim.c     ****   //   us
 337:Src/tim.c     ****   // pclk  Mhz
 338:Src/tim.c     ****   uint8_t PSC=htim->Init.Prescaler+1;
 1045              		.loc 1 338 3 view .LVU315
 1046              		.loc 1 338 35 is_stmt 0 view .LVU316
 1047 0000 0379     		ldrb	r3, [r0, #4]	@ zero_extendqisi2
 1048              		.loc 1 338 11 view .LVU317
 1049 0002 0133     		adds	r3, r3, #1
 1050 0004 DBB2     		uxtb	r3, r3
 1051              	.LVL58:
 339:Src/tim.c     **** 
 340:Src/tim.c     ****   int result=0;
 1052              		.loc 1 340 3 is_stmt 1 view .LVU318
 341:Src/tim.c     ****  
 342:Src/tim.c     ****   result=width*pclk/PSC;
 1053              		.loc 1 342 3 view .LVU319
 1054              		.loc 1 342 15 is_stmt 0 view .LVU320
 1055 0006 02FB01F2 		mul	r2, r2, r1
 1056              	.LVL59:
 343:Src/tim.c     ****   return result;
 1057              		.loc 1 343 3 is_stmt 1 view .LVU321
 344:Src/tim.c     **** }
 1058              		.loc 1 344 1 is_stmt 0 view .LVU322
 1059 000a 92FBF3F0 		sdiv	r0, r2, r3
 1060              	.LVL60:
ARM GAS  C:\Users\ncer\AppData\Local\Temp\ccuX9Zgh.s 			page 30


 1061              		.loc 1 344 1 view .LVU323
 1062 000e 7047     		bx	lr
 1063              		.cfi_endproc
 1064              	.LFE72:
 1066              		.comm	hdma_tim1_ch4_trig_com,68,4
 1067              		.comm	htim3,64,4
 1068              		.comm	htim2,64,4
 1069              		.comm	htim1,64,4
 1070              		.text
 1071              	.Letext0:
 1072              		.file 2 "c:\\arm_gcc\\arm-none-eabi\\include\\machine\\_default_types.h"
 1073              		.file 3 "c:\\arm_gcc\\arm-none-eabi\\include\\sys\\_stdint.h"
 1074              		.file 4 "Drivers/CMSIS/Include/core_cm3.h"
 1075              		.file 5 "Drivers/CMSIS/Device/ST/STM32F1xx/Include/system_stm32f1xx.h"
 1076              		.file 6 "Drivers/CMSIS/Device/ST/STM32F1xx/Include/stm32f103xb.h"
 1077              		.file 7 "Drivers/STM32F1xx_HAL_Driver/Inc/stm32f1xx_hal_def.h"
 1078              		.file 8 "Drivers/STM32F1xx_HAL_Driver/Inc/stm32f1xx_hal_gpio.h"
 1079              		.file 9 "Drivers/STM32F1xx_HAL_Driver/Inc/stm32f1xx_hal_dma.h"
 1080              		.file 10 "Drivers/STM32F1xx_HAL_Driver/Inc/stm32f1xx_hal_tim.h"
 1081              		.file 11 "Drivers/STM32F1xx_HAL_Driver/Inc/stm32f1xx_hal.h"
 1082              		.file 12 "Inc/tim.h"
 1083              		.file 13 "Inc/main.h"
 1084              		.file 14 "Drivers/STM32F1xx_HAL_Driver/Inc/stm32f1xx_hal_tim_ex.h"
 1085              		.file 15 "<built-in>"
ARM GAS  C:\Users\ncer\AppData\Local\Temp\ccuX9Zgh.s 			page 31

